
lte_rrc_module.o:     file format elf32-i386


Disassembly of section .text:

00000000 <__fsm_skb_netrx>:
       0:	55                   	push   %ebp
       1:	89 e5                	mov    %esp,%ebp
       3:	56                   	push   %esi
       4:	53                   	push   %ebx
       5:	e8 fc ff ff ff       	call   6 <__fsm_skb_netrx+0x6>
       a:	eb 1e                	jmp    2a <__fsm_skb_netrx+0x2a>
       c:	8d 74 26 00          	lea    0x0(%esi,%eiz,1),%esi
      10:	e8 fc ff ff ff       	call   11 <__fsm_skb_netrx+0x11>
	raw_spin_unlock_irq(&lock->rlock);
}

static inline void spin_unlock_irqrestore(spinlock_t *lock, unsigned long flags)
{
	raw_spin_unlock_irqrestore(&lock->rlock, flags);
      15:	89 f2                	mov    %esi,%edx
      17:	89 c3                	mov    %eax,%ebx
      19:	b8 d2 02 00 00       	mov    $0x2d2,%eax
      1e:	e8 fc ff ff ff       	call   1f <__fsm_skb_netrx+0x1f>
      23:	89 d8                	mov    %ebx,%eax
      25:	e8 fc ff ff ff       	call   26 <__fsm_skb_netrx+0x26>
      2a:	b8 d2 02 00 00       	mov    $0x2d2,%eax
      2f:	e8 fc ff ff ff       	call   30 <__fsm_skb_netrx+0x30>
      34:	89 c6                	mov    %eax,%esi
      36:	a1 bc 02 00 00       	mov    0x2bc,%eax
      3b:	3b 00                	cmp    (%eax),%eax
      3d:	75 d1                	jne    10 <__fsm_skb_netrx+0x10>
      3f:	89 f2                	mov    %esi,%edx
      41:	b8 d2 02 00 00       	mov    $0x2d2,%eax
      46:	e8 fc ff ff ff       	call   47 <__fsm_skb_netrx+0x47>
      4b:	5b                   	pop    %ebx
      4c:	5e                   	pop    %esi
      4d:	5d                   	pop    %ebp
      4e:	c3                   	ret    
      4f:	90                   	nop

00000050 <__fsm_skb_xmit>:
      50:	55                   	push   %ebp
      51:	89 e5                	mov    %esp,%ebp
      53:	56                   	push   %esi
      54:	53                   	push   %ebx
      55:	e8 fc ff ff ff       	call   56 <__fsm_skb_xmit+0x6>
      5a:	eb 1e                	jmp    7a <__fsm_skb_xmit+0x2a>
      5c:	8d 74 26 00          	lea    0x0(%esi,%eiz,1),%esi
      60:	e8 fc ff ff ff       	call   61 <__fsm_skb_xmit+0x11>
      65:	89 f2                	mov    %esi,%edx
      67:	89 c3                	mov    %eax,%ebx
      69:	b8 d0 02 00 00       	mov    $0x2d0,%eax
      6e:	e8 fc ff ff ff       	call   6f <__fsm_skb_xmit+0x1f>
      73:	89 d8                	mov    %ebx,%eax
      75:	e8 fc ff ff ff       	call   76 <__fsm_skb_xmit+0x26>
      7a:	b8 d0 02 00 00       	mov    $0x2d0,%eax
      7f:	e8 fc ff ff ff       	call   80 <__fsm_skb_xmit+0x30>
      84:	89 c6                	mov    %eax,%esi
      86:	a1 b8 02 00 00       	mov    0x2b8,%eax
      8b:	3b 00                	cmp    (%eax),%eax
      8d:	75 d1                	jne    60 <__fsm_skb_xmit+0x10>
      8f:	89 f2                	mov    %esi,%edx
      91:	b8 d0 02 00 00       	mov    $0x2d0,%eax
      96:	e8 fc ff ff ff       	call   97 <__fsm_skb_xmit+0x47>
      9b:	5b                   	pop    %ebx
      9c:	5e                   	pop    %esi
      9d:	5d                   	pop    %ebp
      9e:	c3                   	ret    
      9f:	90                   	nop

000000a0 <__fsm_do_ioctl>:
      a0:	55                   	push   %ebp
      a1:	89 e5                	mov    %esp,%ebp
      a3:	57                   	push   %edi
      a4:	56                   	push   %esi
      a5:	53                   	push   %ebx
      a6:	e8 fc ff ff ff       	call   a7 <__fsm_do_ioctl+0x7>
 * list_empty - tests whether a list is empty
 * @head: the list to test.
 */
static inline int list_empty(const struct list_head *head)
{
	return head->next == head;
      ab:	8b 35 d4 02 00 00    	mov    0x2d4,%esi
      b1:	81 fe d4 02 00 00    	cmp    $0x2d4,%esi
      b7:	74 60                	je     119 <__fsm_do_ioctl+0x79>
      b9:	8d b4 26 00 00 00 00 	lea    0x0(%esi,%eiz,1),%esi
      c0:	8b 46 f0             	mov    -0x10(%esi),%eax
      c3:	8d 56 f4             	lea    -0xc(%esi),%edx
      c6:	b9 f0 89 00 00       	mov    $0x89f0,%ecx
      cb:	8d 7e f0             	lea    -0x10(%esi),%edi
      ce:	8b 98 34 01 00 00    	mov    0x134(%eax),%ebx
      d4:	ff 53 28             	call   *0x28(%ebx)
      d7:	b8 e4 02 00 00       	mov    $0x2e4,%eax
      dc:	e8 fc ff ff ff       	call   dd <__fsm_do_ioctl+0x3d>
	__list_del(entry->prev, entry->next);
}

static inline void list_del(struct list_head *entry)
{
	__list_del(entry->prev, entry->next);
      e1:	8b 4e 04             	mov    0x4(%esi),%ecx
      e4:	8b 1e                	mov    (%esi),%ebx
 * This is only for internal list manipulation where we know
 * the prev/next entries already!
 */
static inline void __list_del(struct list_head * prev, struct list_head * next)
{
	next->prev = prev;
      e6:	89 4b 04             	mov    %ecx,0x4(%ebx)
      e9:	89 c2                	mov    %eax,%edx
      eb:	b8 e4 02 00 00       	mov    $0x2e4,%eax
	prev->next = next;
      f0:	89 19                	mov    %ebx,(%ecx)
}

static inline void list_del(struct list_head *entry)
{
	__list_del(entry->prev, entry->next);
	entry->next = LIST_POISON1;
      f2:	c7 06 00 01 10 00    	movl   $0x100100,(%esi)
	entry->prev = LIST_POISON2;
      f8:	c7 46 04 00 02 20 00 	movl   $0x200200,0x4(%esi)
      ff:	e8 fc ff ff ff       	call   100 <__fsm_do_ioctl+0x60>
     104:	89 f8                	mov    %edi,%eax
     106:	e8 fc ff ff ff       	call   107 <__fsm_do_ioctl+0x67>
 * list_empty - tests whether a list is empty
 * @head: the list to test.
 */
static inline int list_empty(const struct list_head *head)
{
	return head->next == head;
     10b:	8b 35 d4 02 00 00    	mov    0x2d4,%esi
     111:	81 fe d4 02 00 00    	cmp    $0x2d4,%esi
     117:	75 a7                	jne    c0 <__fsm_do_ioctl+0x20>
     119:	5b                   	pop    %ebx
     11a:	5e                   	pop    %esi
     11b:	5f                   	pop    %edi
     11c:	5d                   	pop    %ebp
     11d:	c3                   	ret    
     11e:	66 90                	xchg   %ax,%ax

00000120 <__fsm_skb_send_null>:
     120:	55                   	push   %ebp
     121:	89 e5                	mov    %esp,%ebp
     123:	e8 fc ff ff ff       	call   124 <__fsm_skb_send_null+0x4>
     128:	e8 fc ff ff ff       	call   129 <__fsm_skb_send_null+0x9>
     12d:	5d                   	pop    %ebp
     12e:	c3                   	ret    
     12f:	90                   	nop

00000130 <__fsm_tm_restart>:
     130:	55                   	push   %ebp
     131:	89 e5                	mov    %esp,%ebp
     133:	83 ec 04             	sub    $0x4,%esp
     136:	e8 fc ff ff ff       	call   137 <__fsm_tm_restart+0x7>
     13b:	8b 15 88 02 00 00    	mov    0x288,%edx
     141:	85 d2                	test   %edx,%edx
     143:	74 7b                	je     1c0 <__fsm_tm_restart+0x90>
     145:	a1 44 02 00 00       	mov    0x244,%eax
     14a:	85 c0                	test   %eax,%eax
     14c:	74 42                	je     190 <__fsm_tm_restart+0x60>
     14e:	83 f8 01             	cmp    $0x1,%eax
     151:	74 05                	je     158 <__fsm_tm_restart+0x28>
     153:	c9                   	leave  
     154:	c3                   	ret    
     155:	8d 76 00             	lea    0x0(%esi),%esi
     158:	b8 48 02 00 00       	mov    $0x248,%eax
     15d:	e8 fc ff ff ff       	call   15e <__fsm_tm_restart+0x2e>
     162:	a1 88 02 00 00       	mov    0x288,%eax
     167:	c7 05 64 02 00 00 30 	movl   $0xa30,0x264
     16e:	0a 00 00 
     171:	8b 50 08             	mov    0x8(%eax),%edx
     174:	8b 48 0c             	mov    0xc(%eax),%ecx
     177:	b8 48 02 00 00       	mov    $0x248,%eax
     17c:	c7 04 24 00 00 00 00 	movl   $0x0,(%esp)
     183:	e8 fc ff ff ff       	call   184 <__fsm_tm_restart+0x54>
     188:	c9                   	leave  
     189:	c3                   	ret    
     18a:	8d b6 00 00 00 00    	lea    0x0(%esi),%esi
     190:	c7 05 64 02 00 00 30 	movl   $0xa30,0x264
     197:	0a 00 00 
     19a:	8b 4a 0c             	mov    0xc(%edx),%ecx
     19d:	b8 48 02 00 00       	mov    $0x248,%eax
     1a2:	8b 52 08             	mov    0x8(%edx),%edx
     1a5:	c7 04 24 00 00 00 00 	movl   $0x0,(%esp)
     1ac:	e8 fc ff ff ff       	call   1ad <__fsm_tm_restart+0x7d>
     1b1:	c7 05 44 02 00 00 01 	movl   $0x1,0x244
     1b8:	00 00 00 
     1bb:	c9                   	leave  
     1bc:	c3                   	ret    
     1bd:	8d 76 00             	lea    0x0(%esi),%esi
     1c0:	c7 05 44 02 00 00 00 	movl   $0x0,0x244
     1c7:	00 00 00 
     1ca:	c9                   	leave  
     1cb:	c3                   	ret    
     1cc:	8d 74 26 00          	lea    0x0(%esi,%eiz,1),%esi

000001d0 <__fsm_skb_pending_xmit>:
     1d0:	55                   	push   %ebp
     1d1:	89 e5                	mov    %esp,%ebp
     1d3:	83 ec 08             	sub    $0x8,%esp
     1d6:	89 5d f8             	mov    %ebx,-0x8(%ebp)
     1d9:	89 75 fc             	mov    %esi,-0x4(%ebp)
     1dc:	e8 fc ff ff ff       	call   1dd <__fsm_skb_pending_xmit+0xd>
     1e1:	66 89 48 66          	mov    %cx,0x66(%eax)
     1e5:	89 c3                	mov    %eax,%ebx
     1e7:	89 50 14             	mov    %edx,0x14(%eax)
     1ea:	b8 d0 02 00 00       	mov    $0x2d0,%eax
     1ef:	e8 fc ff ff ff       	call   1f0 <__fsm_skb_pending_xmit+0x20>
     1f4:	89 da                	mov    %ebx,%edx
     1f6:	89 c6                	mov    %eax,%esi
     1f8:	a1 b8 02 00 00       	mov    0x2b8,%eax
     1fd:	e8 fc ff ff ff       	call   1fe <__fsm_skb_pending_xmit+0x2e>
     202:	89 f2                	mov    %esi,%edx
     204:	b8 d0 02 00 00       	mov    $0x2d0,%eax
     209:	e8 fc ff ff ff       	call   20a <__fsm_skb_pending_xmit+0x3a>
     20e:	a1 c0 02 00 00       	mov    0x2c0,%eax
 */
static inline int test_and_set_bit(int nr, volatile unsigned long *addr)
{
	int oldbit;

	asm volatile(LOCK_PREFIX "bts %2,%1\n\t"
     213:	f0 0f ba 68 04 00    	lock btsl $0x0,0x4(%eax)
     219:	19 d2                	sbb    %edx,%edx

extern void __tasklet_schedule(struct tasklet_struct *t);

static inline void tasklet_schedule(struct tasklet_struct *t)
{
	if (!test_and_set_bit(TASKLET_STATE_SCHED, &t->state))
     21b:	85 d2                	test   %edx,%edx
     21d:	75 05                	jne    224 <__fsm_skb_pending_xmit+0x54>
		__tasklet_schedule(t);
     21f:	e8 fc ff ff ff       	call   220 <__fsm_skb_pending_xmit+0x50>
     224:	8b 5d f8             	mov    -0x8(%ebp),%ebx
     227:	8b 75 fc             	mov    -0x4(%ebp),%esi
     22a:	89 ec                	mov    %ebp,%esp
     22c:	5d                   	pop    %ebp
     22d:	c3                   	ret    
     22e:	66 90                	xchg   %ax,%ax

00000230 <__fsm_skb_pending_netrx>:
     230:	55                   	push   %ebp
     231:	89 e5                	mov    %esp,%ebp
     233:	56                   	push   %esi
     234:	53                   	push   %ebx
     235:	e8 fc ff ff ff       	call   236 <__fsm_skb_pending_netrx+0x6>
     23a:	66 83 f9 08          	cmp    $0x8,%cx
     23e:	89 c3                	mov    %eax,%ebx
     240:	66 89 48 66          	mov    %cx,0x66(%eax)
     244:	89 50 14             	mov    %edx,0x14(%eax)
     247:	75 0d                	jne    256 <__fsm_skb_pending_netrx+0x26>
     249:	0f b6 40 64          	movzbl 0x64(%eax),%eax
     24d:	83 e0 f3             	and    $0xfffffff3,%eax
     250:	83 c8 04             	or     $0x4,%eax
     253:	88 43 64             	mov    %al,0x64(%ebx)
     256:	b8 d2 02 00 00       	mov    $0x2d2,%eax
     25b:	e8 fc ff ff ff       	call   25c <__fsm_skb_pending_netrx+0x2c>
     260:	89 da                	mov    %ebx,%edx
     262:	89 c6                	mov    %eax,%esi
     264:	a1 bc 02 00 00       	mov    0x2bc,%eax
     269:	e8 fc ff ff ff       	call   26a <__fsm_skb_pending_netrx+0x3a>
     26e:	89 f2                	mov    %esi,%edx
     270:	b8 d2 02 00 00       	mov    $0x2d2,%eax
     275:	e8 fc ff ff ff       	call   276 <__fsm_skb_pending_netrx+0x46>
     27a:	a1 c4 02 00 00       	mov    0x2c4,%eax
     27f:	f0 0f ba 68 04 00    	lock btsl $0x0,0x4(%eax)
     285:	19 d2                	sbb    %edx,%edx

extern void __tasklet_schedule(struct tasklet_struct *t);

static inline void tasklet_schedule(struct tasklet_struct *t)
{
	if (!test_and_set_bit(TASKLET_STATE_SCHED, &t->state))
     287:	85 d2                	test   %edx,%edx
     289:	75 05                	jne    290 <__fsm_skb_pending_netrx+0x60>
		__tasklet_schedule(t);
     28b:	e8 fc ff ff ff       	call   28c <__fsm_skb_pending_netrx+0x5c>
     290:	5b                   	pop    %ebx
     291:	5e                   	pop    %esi
     292:	5d                   	pop    %ebp
     293:	c3                   	ret    
     294:	8d b6 00 00 00 00    	lea    0x0(%esi),%esi
     29a:	8d bf 00 00 00 00    	lea    0x0(%edi),%edi

000002a0 <fsm_ev_type>:
     2a0:	55                   	push   %ebp
     2a1:	89 e5                	mov    %esp,%ebp
     2a3:	e8 fc ff ff ff       	call   2a4 <fsm_ev_type+0x4>
     2a8:	a1 30 00 00 00       	mov    0x30,%eax
     2ad:	5d                   	pop    %ebp
     2ae:	c3                   	ret    
     2af:	90                   	nop

000002b0 <fsm_ev_code>:
     2b0:	55                   	push   %ebp
     2b1:	89 e5                	mov    %esp,%ebp
     2b3:	e8 fc ff ff ff       	call   2b4 <fsm_ev_code+0x4>
     2b8:	a1 34 00 00 00       	mov    0x34,%eax
     2bd:	5d                   	pop    %ebp
     2be:	c3                   	ret    
     2bf:	90                   	nop

000002c0 <fsm_ev_src>:
     2c0:	55                   	push   %ebp
     2c1:	89 e5                	mov    %esp,%ebp
     2c3:	e8 fc ff ff ff       	call   2c4 <fsm_ev_src+0x4>
     2c8:	a1 38 00 00 00       	mov    0x38,%eax
     2cd:	5d                   	pop    %ebp
     2ce:	c3                   	ret    
     2cf:	90                   	nop

000002d0 <fsm_ev_ioctrl_cmd>:
     2d0:	55                   	push   %ebp
     2d1:	89 e5                	mov    %esp,%ebp
     2d3:	e8 fc ff ff ff       	call   2d4 <fsm_ev_ioctrl_cmd+0x4>
     2d8:	a1 b0 02 00 00       	mov    0x2b0,%eax
     2dd:	5d                   	pop    %ebp
     2de:	c3                   	ret    
     2df:	90                   	nop

000002e0 <fsm_sv_ptr_get>:
     2e0:	55                   	push   %ebp
     2e1:	89 e5                	mov    %esp,%ebp
     2e3:	e8 fc ff ff ff       	call   2e4 <fsm_sv_ptr_get+0x4>
     2e8:	a1 3c 00 00 00       	mov    0x3c,%eax
     2ed:	5d                   	pop    %ebp
     2ee:	c3                   	ret    
     2ef:	90                   	nop

000002f0 <fsm_current_state_ptr_get>:
     2f0:	55                   	push   %ebp
     2f1:	89 e5                	mov    %esp,%ebp
     2f3:	e8 fc ff ff ff       	call   2f4 <fsm_current_state_ptr_get+0x4>
     2f8:	a1 24 00 00 00       	mov    0x24,%eax
     2fd:	5d                   	pop    %ebp
     2fe:	c3                   	ret    
     2ff:	90                   	nop

00000300 <fsm_dev_get>:
     300:	55                   	push   %ebp
     301:	89 e5                	mov    %esp,%ebp
     303:	e8 fc ff ff ff       	call   304 <fsm_dev_get+0x4>
     308:	a1 a8 02 00 00       	mov    0x2a8,%eax
     30d:	5d                   	pop    %ebp
     30e:	c3                   	ret    
     30f:	90                   	nop

00000310 <fsm_get_id_by_name>:
     310:	55                   	push   %ebp
     311:	89 e5                	mov    %esp,%ebp
     313:	56                   	push   %esi
     314:	53                   	push   %ebx
     315:	e8 fc ff ff ff       	call   316 <fsm_get_id_by_name+0x6>
     31a:	31 db                	xor    %ebx,%ebx
     31c:	89 c6                	mov    %eax,%esi
     31e:	8b 04 9d 90 02 00 00 	mov    0x290(,%ebx,4),%eax
     325:	89 f2                	mov    %esi,%edx
     327:	e8 fc ff ff ff       	call   328 <fsm_get_id_by_name+0x18>
     32c:	85 c0                	test   %eax,%eax
     32e:	74 18                	je     348 <fsm_get_id_by_name+0x38>
     330:	83 c3 01             	add    $0x1,%ebx
     333:	83 fb 06             	cmp    $0x6,%ebx
     336:	75 e6                	jne    31e <fsm_get_id_by_name+0xe>
     338:	5b                   	pop    %ebx
     339:	b8 ff ff ff ff       	mov    $0xffffffff,%eax
     33e:	5e                   	pop    %esi
     33f:	5d                   	pop    %ebp
     340:	c3                   	ret    
     341:	8d b4 26 00 00 00 00 	lea    0x0(%esi,%eiz,1),%esi
     348:	8b 04 9d 90 02 00 00 	mov    0x290(,%ebx,4),%eax
     34f:	5b                   	pop    %ebx
     350:	5e                   	pop    %esi
     351:	5d                   	pop    %ebp
     352:	8b 80 80 00 00 00    	mov    0x80(%eax),%eax
     358:	c3                   	ret    
     359:	8d b4 26 00 00 00 00 	lea    0x0(%esi,%eiz,1),%esi

00000360 <fsm_get_name_by_id>:
     360:	55                   	push   %ebp
     361:	89 e5                	mov    %esp,%ebp
     363:	53                   	push   %ebx
     364:	e8 fc ff ff ff       	call   365 <fsm_get_name_by_id+0x5>
     369:	31 c9                	xor    %ecx,%ecx
     36b:	89 d3                	mov    %edx,%ebx
     36d:	8b 14 8d 90 02 00 00 	mov    0x290(,%ecx,4),%edx
     374:	39 82 80 00 00 00    	cmp    %eax,0x80(%edx)
     37a:	74 14                	je     390 <fsm_get_name_by_id+0x30>
     37c:	83 c1 01             	add    $0x1,%ecx
     37f:	83 f9 06             	cmp    $0x6,%ecx
     382:	75 e9                	jne    36d <fsm_get_name_by_id+0xd>
     384:	c6 03 00             	movb   $0x0,(%ebx)
     387:	5b                   	pop    %ebx
     388:	5d                   	pop    %ebp
     389:	c3                   	ret    
     38a:	8d b6 00 00 00 00    	lea    0x0(%esi),%esi
     390:	89 d8                	mov    %ebx,%eax
     392:	e8 fc ff ff ff       	call   393 <fsm_get_name_by_id+0x33>
     397:	c6 03 00             	movb   $0x0,(%ebx)
     39a:	5b                   	pop    %ebx
     39b:	5d                   	pop    %ebp
     39c:	c3                   	ret    
     39d:	8d 76 00             	lea    0x0(%esi),%esi

000003a0 <fsm_intf_addr_get>:
     3a0:	55                   	push   %ebp
     3a1:	89 e5                	mov    %esp,%ebp
     3a3:	e8 fc ff ff ff       	call   3a4 <fsm_intf_addr_get+0x4>
     3a8:	c1 e0 04             	shl    $0x4,%eax
     3ab:	8d 90 40 00 00 00    	lea    0x40(%eax),%edx
     3b1:	31 c0                	xor    %eax,%eax
     3b3:	83 7a 04 01          	cmpl   $0x1,0x4(%edx)
     3b7:	75 09                	jne    3c2 <fsm_intf_addr_get+0x22>
     3b9:	8b 42 0c             	mov    0xc(%edx),%eax
     3bc:	8b 80 d0 01 00 00    	mov    0x1d0(%eax),%eax
     3c2:	5d                   	pop    %ebp
     3c3:	c3                   	ret    
     3c4:	8d b6 00 00 00 00    	lea    0x0(%esi),%esi
     3ca:	8d bf 00 00 00 00    	lea    0x0(%edi),%edi

000003d0 <fsm_self_addr_get>:
     3d0:	55                   	push   %ebp
     3d1:	89 e5                	mov    %esp,%ebp
     3d3:	e8 fc ff ff ff       	call   3d4 <fsm_self_addr_get+0x4>
     3d8:	a1 a8 02 00 00       	mov    0x2a8,%eax
     3dd:	5d                   	pop    %ebp
     3de:	8b 80 d0 01 00 00    	mov    0x1d0(%eax),%eax
     3e4:	c3                   	ret    
     3e5:	8d 74 26 00          	lea    0x0(%esi,%eiz,1),%esi
     3e9:	8d bc 27 00 00 00 00 	lea    0x0(%edi,%eiz,1),%edi

000003f0 <fsm_data_get>:
     3f0:	55                   	push   %ebp
     3f1:	89 e5                	mov    %esp,%ebp
     3f3:	e8 fc ff ff ff       	call   3f4 <fsm_data_get+0x4>
     3f8:	a1 ac 02 00 00       	mov    0x2ac,%eax
     3fd:	c7 05 ac 02 00 00 00 	movl   $0x0,0x2ac
     404:	00 00 00 
     407:	5d                   	pop    %ebp
     408:	c3                   	ret    
     409:	8d b4 26 00 00 00 00 	lea    0x0(%esi,%eiz,1),%esi

00000410 <fsm_data_destroy>:
     410:	55                   	push   %ebp
     411:	89 e5                	mov    %esp,%ebp
     413:	e8 fc ff ff ff       	call   414 <fsm_data_destroy+0x4>
     418:	e8 fc ff ff ff       	call   419 <fsm_data_destroy+0x9>
     41d:	83 05 00 00 00 00 01 	addl   $0x1,0x0
     424:	5d                   	pop    %ebp
     425:	c3                   	ret    
     426:	8d 76 00             	lea    0x0(%esi),%esi
     429:	8d bc 27 00 00 00 00 	lea    0x0(%edi,%eiz,1),%edi

00000430 <__fsm_core_self_drive>:
     430:	55                   	push   %ebp
     431:	89 e5                	mov    %esp,%ebp
     433:	56                   	push   %esi
     434:	53                   	push   %ebx
     435:	e8 fc ff ff ff       	call   436 <__fsm_core_self_drive+0x6>
     43a:	8b 5d 0c             	mov    0xc(%ebp),%ebx
     43d:	89 1d 20 00 00 00    	mov    %ebx,0x20
     443:	8b 1c 9d 90 02 00 00 	mov    0x290(,%ebx,4),%ebx
     44a:	a3 30 00 00 00       	mov    %eax,0x30
     44f:	8b 45 08             	mov    0x8(%ebp),%eax
     452:	89 15 34 00 00 00    	mov    %edx,0x34
     458:	89 0d 2c 00 00 00    	mov    %ecx,0x2c
     45e:	8d b3 8c 00 00 00    	lea    0x8c(%ebx),%esi
     464:	a3 38 00 00 00       	mov    %eax,0x38
     469:	8b 83 88 00 00 00    	mov    0x88(%ebx),%eax
     46f:	89 35 24 00 00 00    	mov    %esi,0x24
     475:	a3 3c 00 00 00       	mov    %eax,0x3c
     47a:	8b 45 10             	mov    0x10(%ebp),%eax
     47d:	a3 ac 02 00 00       	mov    %eax,0x2ac
     482:	8b 45 14             	mov    0x14(%ebp),%eax
     485:	a3 b0 02 00 00       	mov    %eax,0x2b0
     48a:	8b 83 84 00 00 00    	mov    0x84(%ebx),%eax
     490:	a3 40 00 00 00       	mov    %eax,0x40
     495:	ff d0                	call   *%eax
     497:	a1 2c 00 00 00       	mov    0x2c,%eax
     49c:	85 c0                	test   %eax,%eax
     49e:	74 05                	je     4a5 <__fsm_core_self_drive+0x75>
     4a0:	e8 fc ff ff ff       	call   4a1 <__fsm_core_self_drive+0x71>
     4a5:	a1 ac 02 00 00       	mov    0x2ac,%eax
     4aa:	85 c0                	test   %eax,%eax
     4ac:	74 05                	je     4b3 <__fsm_core_self_drive+0x83>
     4ae:	e8 fc ff ff ff       	call   4af <__fsm_core_self_drive+0x7f>
     4b3:	5b                   	pop    %ebx
     4b4:	c7 05 20 00 00 00 ff 	movl   $0xffffffff,0x20
     4bb:	ff ff ff 
     4be:	5e                   	pop    %esi
     4bf:	c7 05 24 00 00 00 00 	movl   $0x0,0x24
     4c6:	00 00 00 
     4c9:	c7 05 2c 00 00 00 00 	movl   $0x0,0x2c
     4d0:	00 00 00 
     4d3:	c7 05 30 00 00 00 00 	movl   $0x0,0x30
     4da:	00 00 00 
     4dd:	c7 05 34 00 00 00 00 	movl   $0x0,0x34
     4e4:	00 00 00 
     4e7:	c7 05 38 00 00 00 00 	movl   $0x0,0x38
     4ee:	00 00 00 
     4f1:	c7 05 3c 00 00 00 00 	movl   $0x0,0x3c
     4f8:	00 00 00 
     4fb:	c7 05 40 00 00 00 00 	movl   $0x0,0x40
     502:	00 00 00 
     505:	c7 05 ac 02 00 00 00 	movl   $0x0,0x2ac
     50c:	00 00 00 
     50f:	c7 05 b0 02 00 00 00 	movl   $0x0,0x2b0
     516:	00 00 00 
     519:	5d                   	pop    %ebp
     51a:	c3                   	ret    
     51b:	90                   	nop
     51c:	8d 74 26 00          	lea    0x0(%esi,%eiz,1),%esi

00000520 <fsm_pkt_get>:
     520:	55                   	push   %ebp
     521:	89 e5                	mov    %esp,%ebp
     523:	e8 fc ff ff ff       	call   524 <fsm_pkt_get+0x4>
     528:	a1 2c 00 00 00       	mov    0x2c,%eax
     52d:	c7 05 2c 00 00 00 00 	movl   $0x0,0x2c
     534:	00 00 00 
     537:	5d                   	pop    %ebp
     538:	c3                   	ret    
     539:	8d b4 26 00 00 00 00 	lea    0x0(%esi,%eiz,1),%esi

00000540 <fsm_pkt_send>:
     540:	55                   	push   %ebp
     541:	89 e5                	mov    %esp,%ebp
     543:	53                   	push   %ebx
     544:	e8 fc ff ff ff       	call   545 <fsm_pkt_send+0x5>
     549:	83 fa 1f             	cmp    $0x1f,%edx
     54c:	7f 2a                	jg     578 <fsm_pkt_send+0x38>
     54e:	c1 e2 04             	shl    $0x4,%edx
     551:	8d 9a 40 00 00 00    	lea    0x40(%edx),%ebx
     557:	8b 53 04             	mov    0x4(%ebx),%edx
     55a:	85 d2                	test   %edx,%edx
     55c:	74 1a                	je     578 <fsm_pkt_send+0x38>
     55e:	83 fa 01             	cmp    $0x1,%edx
     561:	74 25                	je     588 <fsm_pkt_send+0x48>
     563:	83 fa 02             	cmp    $0x2,%edx
     566:	75 15                	jne    57d <fsm_pkt_send+0x3d>
     568:	0f b7 4b 08          	movzwl 0x8(%ebx),%ecx
     56c:	8b 15 a8 02 00 00    	mov    0x2a8,%edx
     572:	ff 53 10             	call   *0x10(%ebx)
     575:	eb 06                	jmp    57d <fsm_pkt_send+0x3d>
     577:	90                   	nop
     578:	e8 fc ff ff ff       	call   579 <fsm_pkt_send+0x39>
     57d:	5b                   	pop    %ebx
     57e:	5d                   	pop    %ebp
     57f:	90                   	nop
     580:	c3                   	ret    
     581:	8d b4 26 00 00 00 00 	lea    0x0(%esi,%eiz,1),%esi
     588:	0f b7 4b 08          	movzwl 0x8(%ebx),%ecx
     58c:	8b 53 0c             	mov    0xc(%ebx),%edx
     58f:	ff 53 10             	call   *0x10(%ebx)
     592:	eb e9                	jmp    57d <fsm_pkt_send+0x3d>
     594:	8d b6 00 00 00 00    	lea    0x0(%esi),%esi
     59a:	8d bf 00 00 00 00    	lea    0x0(%edi),%edi

000005a0 <fsm_pkt_create>:
     5a0:	55                   	push   %ebp
     5a1:	89 e5                	mov    %esp,%ebp
     5a3:	53                   	push   %ebx
     5a4:	e8 fc ff ff ff       	call   5a5 <fsm_pkt_create+0x5>
 *	allocates memory it can be called from an interrupt.
 */
static inline struct sk_buff *netdev_alloc_skb(struct net_device *dev,
					       unsigned int length)
{
	return __netdev_alloc_skb(dev, length, GFP_ATOMIC);
     5a9:	b9 20 00 00 00       	mov    $0x20,%ecx
     5ae:	89 c2                	mov    %eax,%edx
     5b0:	31 c0                	xor    %eax,%eax
     5b2:	e8 fc ff ff ff       	call   5b3 <fsm_pkt_create+0x13>
     5b7:	31 d2                	xor    %edx,%edx
     5b9:	89 c3                	mov    %eax,%ebx
     5bb:	8b 80 a8 00 00 00    	mov    0xa8(%eax),%eax
     5c1:	8b 8b a4 00 00 00    	mov    0xa4(%ebx),%ecx
     5c7:	29 c1                	sub    %eax,%ecx
     5c9:	e8 fc ff ff ff       	call   5ca <fsm_pkt_create+0x2a>
     5ce:	89 d8                	mov    %ebx,%eax
     5d0:	5b                   	pop    %ebx
     5d1:	5d                   	pop    %ebp
     5d2:	c3                   	ret    
     5d3:	8d b6 00 00 00 00    	lea    0x0(%esi),%esi
     5d9:	8d bc 27 00 00 00 00 	lea    0x0(%edi,%eiz,1),%edi

000005e0 <fsm_skb_realloc_headeroom>:
     5e0:	55                   	push   %ebp
     5e1:	89 e5                	mov    %esp,%ebp
     5e3:	83 ec 0c             	sub    $0xc,%esp
     5e6:	89 5d f4             	mov    %ebx,-0xc(%ebp)
     5e9:	89 75 f8             	mov    %esi,-0x8(%ebp)
     5ec:	89 7d fc             	mov    %edi,-0x4(%ebp)
     5ef:	e8 fc ff ff ff       	call   5f0 <fsm_skb_realloc_headeroom+0x10>
     5f4:	89 c3                	mov    %eax,%ebx
     5f6:	e8 fc ff ff ff       	call   5f7 <fsm_skb_realloc_headeroom+0x17>
     5fb:	85 c0                	test   %eax,%eax
     5fd:	89 c6                	mov    %eax,%esi
     5ff:	74 27                	je     628 <fsm_skb_realloc_headeroom+0x48>
     601:	8b 7b 10             	mov    0x10(%ebx),%edi
     604:	85 ff                	test   %edi,%edi
     606:	74 20                	je     628 <fsm_skb_realloc_headeroom+0x48>
 *	destructor function and make the @skb unowned. The buffer continues
 *	to exist but is no longer charged to its former owner.
 */
static inline void skb_orphan(struct sk_buff *skb)
{
	if (skb->destructor)
     608:	8b 50 68             	mov    0x68(%eax),%edx
     60b:	85 d2                	test   %edx,%edx
     60d:	74 02                	je     611 <fsm_skb_realloc_headeroom+0x31>
		skb->destructor(skb);
     60f:	ff d2                	call   *%edx
 */

static inline void skb_set_owner_w(struct sk_buff *skb, struct sock *sk)
{
	skb_orphan(skb);
	skb->sk = sk;
     611:	89 7e 10             	mov    %edi,0x10(%esi)
 *
 * Atomically adds @i to @v.
 */
static inline void atomic_add(int i, atomic_t *v)
{
	asm volatile(LOCK_PREFIX "addl %1,%0"
     614:	8b 86 b0 00 00 00    	mov    0xb0(%esi),%eax
	skb->destructor = sock_wfree;
     61a:	c7 46 68 00 00 00 00 	movl   $0x0,0x68(%esi)
     621:	f0 01 87 94 00 00 00 	lock add %eax,0x94(%edi)
     628:	89 d8                	mov    %ebx,%eax
     62a:	e8 fc ff ff ff       	call   62b <fsm_skb_realloc_headeroom+0x4b>
     62f:	89 f0                	mov    %esi,%eax
     631:	8b 5d f4             	mov    -0xc(%ebp),%ebx
     634:	8b 75 f8             	mov    -0x8(%ebp),%esi
     637:	8b 7d fc             	mov    -0x4(%ebp),%edi
     63a:	89 ec                	mov    %ebp,%esp
     63c:	5d                   	pop    %ebp
     63d:	c3                   	ret    
     63e:	66 90                	xchg   %ax,%ax

00000640 <fsm_pkt_destroy>:
     640:	55                   	push   %ebp
     641:	89 e5                	mov    %esp,%ebp
     643:	e8 fc ff ff ff       	call   644 <fsm_pkt_destroy+0x4>
     648:	e8 fc ff ff ff       	call   649 <fsm_pkt_destroy+0x9>
     64d:	5d                   	pop    %ebp
     64e:	c3                   	ret    
     64f:	90                   	nop

00000650 <fsm_pkt_duplicate>:
     650:	55                   	push   %ebp
     651:	89 e5                	mov    %esp,%ebp
     653:	e8 fc ff ff ff       	call   654 <fsm_pkt_duplicate+0x4>
     658:	ba 20 00 00 00       	mov    $0x20,%edx
     65d:	e8 fc ff ff ff       	call   65e <fsm_pkt_duplicate+0xe>
     662:	5d                   	pop    %ebp
     663:	c3                   	ret    
     664:	8d b6 00 00 00 00    	lea    0x0(%esi),%esi
     66a:	8d bf 00 00 00 00    	lea    0x0(%edi),%edi

00000670 <fsm_skb_put>:
     670:	55                   	push   %ebp
     671:	89 e5                	mov    %esp,%ebp
     673:	e8 fc ff ff ff       	call   674 <fsm_skb_put+0x4>
     678:	e8 fc ff ff ff       	call   679 <fsm_skb_put+0x9>
     67d:	5d                   	pop    %ebp
     67e:	c3                   	ret    
     67f:	90                   	nop

00000680 <fsm_skb_push>:
     680:	55                   	push   %ebp
     681:	89 e5                	mov    %esp,%ebp
     683:	e8 fc ff ff ff       	call   684 <fsm_skb_push+0x4>
     688:	e8 fc ff ff ff       	call   689 <fsm_skb_push+0x9>
     68d:	5d                   	pop    %ebp
     68e:	c3                   	ret    
     68f:	90                   	nop

00000690 <fsm_skb_pull>:
     690:	55                   	push   %ebp
     691:	89 e5                	mov    %esp,%ebp
     693:	e8 fc ff ff ff       	call   694 <fsm_skb_pull+0x4>
     698:	89 c1                	mov    %eax,%ecx
     69a:	8b 80 ac 00 00 00    	mov    0xac(%eax),%eax
     6a0:	29 51 50             	sub    %edx,0x50(%ecx)
     6a3:	01 d0                	add    %edx,%eax
     6a5:	89 81 ac 00 00 00    	mov    %eax,0xac(%ecx)
     6ab:	5d                   	pop    %ebp
     6ac:	c3                   	ret    
     6ad:	8d 76 00             	lea    0x0(%esi),%esi

000006b0 <fsm_skb_reserve>:
     6b0:	55                   	push   %ebp
     6b1:	89 e5                	mov    %esp,%ebp
     6b3:	e8 fc ff ff ff       	call   6b4 <fsm_skb_reserve+0x4>
 *	Increase the headroom of an empty &sk_buff by reducing the tail
 *	room. This is only allowed for an empty buffer.
 */
static inline void skb_reserve(struct sk_buff *skb, int len)
{
	skb->data += len;
     6b8:	01 90 ac 00 00 00    	add    %edx,0xac(%eax)
	skb->tail += len;
     6be:	01 90 a0 00 00 00    	add    %edx,0xa0(%eax)
     6c4:	5d                   	pop    %ebp
     6c5:	c3                   	ret    
     6c6:	8d 76 00             	lea    0x0(%esi),%esi
     6c9:	8d bc 27 00 00 00 00 	lea    0x0(%edi,%eiz,1),%edi

000006d0 <fsm_skb_tailroom>:
     6d0:	55                   	push   %ebp
     6d1:	89 e5                	mov    %esp,%ebp
     6d3:	e8 fc ff ff ff       	call   6d4 <fsm_skb_tailroom+0x4>
 *
 *	Return the number of bytes of free space at the tail of an sk_buff
 */
static inline int skb_tailroom(const struct sk_buff *skb)
{
	return skb_is_nonlinear(skb) ? 0 : skb->end - skb->tail;
     6d8:	31 d2                	xor    %edx,%edx
     6da:	8b 48 54             	mov    0x54(%eax),%ecx
     6dd:	85 c9                	test   %ecx,%ecx
     6df:	75 0c                	jne    6ed <fsm_skb_tailroom+0x1d>
     6e1:	8b 90 a4 00 00 00    	mov    0xa4(%eax),%edx
     6e7:	2b 90 a0 00 00 00    	sub    0xa0(%eax),%edx
     6ed:	89 d0                	mov    %edx,%eax
     6ef:	5d                   	pop    %ebp
     6f0:	c3                   	ret    
     6f1:	eb 0d                	jmp    700 <fsm_skb_headroom>
     6f3:	90                   	nop
     6f4:	90                   	nop
     6f5:	90                   	nop
     6f6:	90                   	nop
     6f7:	90                   	nop
     6f8:	90                   	nop
     6f9:	90                   	nop
     6fa:	90                   	nop
     6fb:	90                   	nop
     6fc:	90                   	nop
     6fd:	90                   	nop
     6fe:	90                   	nop
     6ff:	90                   	nop

00000700 <fsm_skb_headroom>:
     700:	55                   	push   %ebp
     701:	89 e5                	mov    %esp,%ebp
     703:	e8 fc ff ff ff       	call   704 <fsm_skb_headroom+0x4>
 *
 *	Return the number of bytes of free space at the head of an &sk_buff.
 */
static inline unsigned int skb_headroom(const struct sk_buff *skb)
{
	return skb->data - skb->head;
     708:	8b 90 ac 00 00 00    	mov    0xac(%eax),%edx
     70e:	2b 90 a8 00 00 00    	sub    0xa8(%eax),%edx
     714:	5d                   	pop    %ebp
     715:	89 d0                	mov    %edx,%eax
     717:	c3                   	ret    
     718:	90                   	nop
     719:	8d b4 26 00 00 00 00 	lea    0x0(%esi,%eiz,1),%esi

00000720 <fsm_mem_alloc>:
     720:	55                   	push   %ebp
     721:	89 e5                	mov    %esp,%ebp
     723:	e8 fc ff ff ff       	call   724 <fsm_mem_alloc+0x4>
				return ZERO_SIZE_PTR;

			return kmem_cache_alloc_trace(s, flags, size);
		}
	}
	return __kmalloc(size, flags);
     728:	ba 20 00 00 00       	mov    $0x20,%edx
     72d:	e8 fc ff ff ff       	call   72e <fsm_mem_alloc+0xe>
     732:	83 05 00 00 00 00 01 	addl   $0x1,0x0
     739:	5d                   	pop    %ebp
     73a:	c3                   	ret    
     73b:	90                   	nop
     73c:	8d 74 26 00          	lea    0x0(%esi,%eiz,1),%esi

00000740 <__fsm_tm_ev_add.constprop.7>:
     740:	55                   	push   %ebp
     741:	89 e5                	mov    %esp,%ebp
     743:	57                   	push   %edi
     744:	56                   	push   %esi
     745:	53                   	push   %ebx
     746:	83 ec 14             	sub    $0x14,%esp
     749:	e8 fc ff ff ff       	call   74a <__fsm_tm_ev_add.constprop.7+0xa>
     74e:	89 c3                	mov    %eax,%ebx
     750:	b8 2c 00 00 00       	mov    $0x2c,%eax
     755:	89 d6                	mov    %edx,%esi
     757:	89 cf                	mov    %ecx,%edi
     759:	e8 fc ff ff ff       	call   75a <__fsm_tm_ev_add.constprop.7+0x1a>
     75e:	85 c0                	test   %eax,%eax
     760:	89 45 f0             	mov    %eax,-0x10(%ebp)
     763:	0f 84 bc 00 00 00    	je     825 <__fsm_tm_ev_add.constprop.7+0xe5>
     769:	c7 40 04 d6 96 0f 04 	movl   $0x40f96d6,0x4(%eax)
     770:	8b 55 f0             	mov    -0x10(%ebp),%edx
     773:	85 db                	test   %ebx,%ebx
     775:	c7 00 00 00 00 00    	movl   $0x0,(%eax)
     77b:	89 70 18             	mov    %esi,0x18(%eax)
     77e:	89 78 14             	mov    %edi,0x14(%eax)
     781:	89 58 10             	mov    %ebx,0x10(%eax)
     784:	c7 40 1c 00 00 00 00 	movl   $0x0,0x1c(%eax)
     78b:	8b 45 08             	mov    0x8(%ebp),%eax
     78e:	89 42 24             	mov    %eax,0x24(%edx)
     791:	8b 45 0c             	mov    0xc(%ebp),%eax
     794:	89 42 20             	mov    %eax,0x20(%edx)
     797:	8b 45 10             	mov    0x10(%ebp),%eax
     79a:	89 42 28             	mov    %eax,0x28(%edx)
     79d:	0f 84 8d 00 00 00    	je     830 <__fsm_tm_ev_add.constprop.7+0xf0>
     7a3:	e8 fc ff ff ff       	call   7a4 <__fsm_tm_ev_add.constprop.7+0x64>
     7a8:	8d 1c 9b             	lea    (%ebx,%ebx,4),%ebx
     7ab:	01 db                	add    %ebx,%ebx
     7ad:	89 c6                	mov    %eax,%esi
       return ktime_to_us(ktime_sub(later, earlier));
}

static inline ktime_t ktime_add_us(const ktime_t kt, const u64 usec)
{
	return ktime_add_ns(kt, usec * 1000);
     7af:	b8 e8 03 00 00       	mov    $0x3e8,%eax
     7b4:	89 d7                	mov    %edx,%edi
     7b6:	f7 e3                	mul    %ebx
     7b8:	01 f0                	add    %esi,%eax
     7ba:	8b 75 f0             	mov    -0x10(%ebp),%esi
     7bd:	11 fa                	adc    %edi,%edx
     7bf:	89 46 08             	mov    %eax,0x8(%esi)
     7c2:	89 56 0c             	mov    %edx,0xc(%esi)
     7c5:	b8 e8 02 00 00       	mov    $0x2e8,%eax
     7ca:	e8 fc ff ff ff       	call   7cb <__fsm_tm_ev_add.constprop.7+0x8b>
     7cf:	89 45 e0             	mov    %eax,-0x20(%ebp)
     7d2:	a1 88 02 00 00       	mov    0x288,%eax
     7d7:	85 c0                	test   %eax,%eax
     7d9:	74 24                	je     7ff <__fsm_tm_ev_add.constprop.7+0xbf>
     7db:	8b 7d f0             	mov    -0x10(%ebp),%edi
     7de:	8b 48 08             	mov    0x8(%eax),%ecx
     7e1:	8b 58 0c             	mov    0xc(%eax),%ebx
     7e4:	8b 77 08             	mov    0x8(%edi),%esi
     7e7:	8b 7f 0c             	mov    0xc(%edi),%edi
     7ea:	89 75 e8             	mov    %esi,-0x18(%ebp)
     7ed:	89 ce                	mov    %ecx,%esi
     7ef:	89 7d ec             	mov    %edi,-0x14(%ebp)
     7f2:	89 df                	mov    %ebx,%edi
     7f4:	2b 75 e8             	sub    -0x18(%ebp),%esi
     7f7:	1b 7d ec             	sbb    -0x14(%ebp),%edi
     7fa:	83 ff 00             	cmp    $0x0,%edi
     7fd:	7e 51                	jle    850 <__fsm_tm_ev_add.constprop.7+0x110>
     7ff:	8b 55 f0             	mov    -0x10(%ebp),%edx
     802:	89 02                	mov    %eax,(%edx)
     804:	83 3d 44 02 00 00 02 	cmpl   $0x2,0x244
     80b:	89 15 88 02 00 00    	mov    %edx,0x288
     811:	74 05                	je     818 <__fsm_tm_ev_add.constprop.7+0xd8>
     813:	e8 18 f9 ff ff       	call   130 <__fsm_tm_restart>
     818:	8b 55 e0             	mov    -0x20(%ebp),%edx
     81b:	b8 e8 02 00 00       	mov    $0x2e8,%eax
     820:	e8 fc ff ff ff       	call   821 <__fsm_tm_ev_add.constprop.7+0xe1>
     825:	8b 45 f0             	mov    -0x10(%ebp),%eax
     828:	83 c4 14             	add    $0x14,%esp
     82b:	5b                   	pop    %ebx
     82c:	5e                   	pop    %esi
     82d:	5f                   	pop    %edi
     82e:	5d                   	pop    %ebp
     82f:	c3                   	ret    
     830:	e8 fc ff ff ff       	call   831 <__fsm_tm_ev_add.constprop.7+0xf1>
     835:	8b 4d f0             	mov    -0x10(%ebp),%ecx
     838:	05 10 27 00 00       	add    $0x2710,%eax
     83d:	83 d2 00             	adc    $0x0,%edx
     840:	89 41 08             	mov    %eax,0x8(%ecx)
     843:	89 51 0c             	mov    %edx,0xc(%ecx)
     846:	e9 7a ff ff ff       	jmp    7c5 <__fsm_tm_ev_add.constprop.7+0x85>
     84b:	90                   	nop
     84c:	8d 74 26 00          	lea    0x0(%esi,%eiz,1),%esi
     850:	7c 1f                	jl     871 <__fsm_tm_ev_add.constprop.7+0x131>
     852:	83 fe 00             	cmp    $0x0,%esi
     855:	76 1a                	jbe    871 <__fsm_tm_ev_add.constprop.7+0x131>
     857:	eb a6                	jmp    7ff <__fsm_tm_ev_add.constprop.7+0xbf>
     859:	8d b4 26 00 00 00 00 	lea    0x0(%esi,%eiz,1),%esi
     860:	8b 10                	mov    (%eax),%edx
     862:	85 d2                	test   %edx,%edx
     864:	74 32                	je     898 <__fsm_tm_ev_add.constprop.7+0x158>
     866:	8b 4a 08             	mov    0x8(%edx),%ecx
     869:	8b 5a 0c             	mov    0xc(%edx),%ebx
     86c:	89 45 e4             	mov    %eax,-0x1c(%ebp)
     86f:	89 d0                	mov    %edx,%eax
     871:	8b 75 e8             	mov    -0x18(%ebp),%esi
     874:	8b 7d ec             	mov    -0x14(%ebp),%edi
     877:	29 ce                	sub    %ecx,%esi
     879:	19 df                	sbb    %ebx,%edi
     87b:	83 ff 00             	cmp    $0x0,%edi
     87e:	7f e0                	jg     860 <__fsm_tm_ev_add.constprop.7+0x120>
     880:	7c 05                	jl     887 <__fsm_tm_ev_add.constprop.7+0x147>
     882:	83 fe 00             	cmp    $0x0,%esi
     885:	77 d9                	ja     860 <__fsm_tm_ev_add.constprop.7+0x120>
     887:	8b 55 ec             	mov    -0x14(%ebp),%edx
     88a:	33 4d e8             	xor    -0x18(%ebp),%ecx
     88d:	31 da                	xor    %ebx,%edx
     88f:	09 ca                	or     %ecx,%edx
     891:	74 cd                	je     860 <__fsm_tm_ev_add.constprop.7+0x120>
     893:	89 c2                	mov    %eax,%edx
     895:	8b 45 e4             	mov    -0x1c(%ebp),%eax
     898:	8b 4d f0             	mov    -0x10(%ebp),%ecx
     89b:	89 11                	mov    %edx,(%ecx)
     89d:	89 08                	mov    %ecx,(%eax)
     89f:	e9 74 ff ff ff       	jmp    818 <__fsm_tm_ev_add.constprop.7+0xd8>
     8a4:	8d b6 00 00 00 00    	lea    0x0(%esi),%esi
     8aa:	8d bf 00 00 00 00    	lea    0x0(%edi),%edi

000008b0 <fsm_mem_free>:
     8b0:	55                   	push   %ebp
     8b1:	89 e5                	mov    %esp,%ebp
     8b3:	e8 fc ff ff ff       	call   8b4 <fsm_mem_free+0x4>
     8b8:	e8 fc ff ff ff       	call   8b9 <fsm_mem_free+0x9>
     8bd:	5d                   	pop    %ebp
     8be:	c3                   	ret    
     8bf:	90                   	nop

000008c0 <fsm_mem_cpy>:
     8c0:	55                   	push   %ebp
     8c1:	89 e5                	mov    %esp,%ebp
     8c3:	e8 fc ff ff ff       	call   8c4 <fsm_mem_cpy+0x4>
     8c8:	e8 fc ff ff ff       	call   8c9 <fsm_mem_cpy+0x9>
     8cd:	5d                   	pop    %ebp
     8ce:	c3                   	ret    
     8cf:	90                   	nop

000008d0 <fsm_mem_set>:
     8d0:	55                   	push   %ebp
     8d1:	89 e5                	mov    %esp,%ebp
     8d3:	e8 fc ff ff ff       	call   8d4 <fsm_mem_set+0x4>
     8d8:	e8 fc ff ff ff       	call   8d9 <fsm_mem_set+0x9>
     8dd:	5d                   	pop    %ebp
     8de:	c3                   	ret    
     8df:	90                   	nop

000008e0 <fsm_mem_cmp>:
     8e0:	55                   	push   %ebp
     8e1:	89 e5                	mov    %esp,%ebp
     8e3:	e8 fc ff ff ff       	call   8e4 <fsm_mem_cmp+0x4>
     8e8:	e8 fc ff ff ff       	call   8e9 <fsm_mem_cmp+0x9>
     8ed:	5d                   	pop    %ebp
     8ee:	c3                   	ret    
     8ef:	90                   	nop

000008f0 <fsm_printf>:
     8f0:	55                   	push   %ebp
     8f1:	89 e5                	mov    %esp,%ebp
     8f3:	83 ec 08             	sub    $0x8,%esp
     8f6:	e8 fc ff ff ff       	call   8f7 <fsm_printf+0x7>
     8fb:	8d 45 0c             	lea    0xc(%ebp),%eax
     8fe:	89 44 24 04          	mov    %eax,0x4(%esp)
     902:	8b 45 08             	mov    0x8(%ebp),%eax
     905:	89 04 24             	mov    %eax,(%esp)
     908:	e8 fc ff ff ff       	call   909 <fsm_printf+0x19>
     90d:	c9                   	leave  
     90e:	c3                   	ret    
     90f:	90                   	nop

00000910 <__fsm_pending_expev>:
     910:	55                   	push   %ebp
     911:	89 e5                	mov    %esp,%ebp
     913:	57                   	push   %edi
     914:	56                   	push   %esi
     915:	53                   	push   %ebx
     916:	83 ec 18             	sub    $0x18,%esp
     919:	e8 fc ff ff ff       	call   91a <__fsm_pending_expev+0xa>
     91e:	8b 35 dc 02 00 00    	mov    0x2dc,%esi
     924:	81 fe dc 02 00 00    	cmp    $0x2dc,%esi
     92a:	0f 85 a5 00 00 00    	jne    9d5 <__fsm_pending_expev+0xc5>
     930:	e9 eb 00 00 00       	jmp    a20 <__fsm_pending_expev+0x110>
     935:	8d 76 00             	lea    0x0(%esi),%esi
     938:	b8 b4 02 00 00       	mov    $0x2b4,%eax
     93d:	e8 fc ff ff ff       	call   93e <__fsm_pending_expev+0x2e>
     942:	8b 4b 1c             	mov    0x1c(%ebx),%ecx
     945:	8b 53 14             	mov    0x14(%ebx),%edx
     948:	89 45 ec             	mov    %eax,-0x14(%ebp)
     94b:	8b 43 18             	mov    0x18(%ebx),%eax
     94e:	c7 44 24 0c 00 00 00 	movl   $0x0,0xc(%esp)
     955:	00 
     956:	8b 7b 28             	mov    0x28(%ebx),%edi
     959:	89 7c 24 08          	mov    %edi,0x8(%esp)
     95d:	8b 7b 20             	mov    0x20(%ebx),%edi
     960:	89 7c 24 04          	mov    %edi,0x4(%esp)
     964:	8b 7b 24             	mov    0x24(%ebx),%edi
     967:	89 3c 24             	mov    %edi,(%esp)
     96a:	e8 c1 fa ff ff       	call   430 <__fsm_core_self_drive>
     96f:	8b 55 ec             	mov    -0x14(%ebp),%edx
     972:	b8 b4 02 00 00       	mov    $0x2b4,%eax
     977:	e8 fc ff ff ff       	call   978 <__fsm_pending_expev+0x68>

#if defined(CONFIG_SMP) && defined(CONFIG_PARAVIRT_SPINLOCKS)

static inline int arch_spin_is_locked(struct arch_spinlock *lock)
{
	return PVOP_CALL1(int, pv_lock_ops.spin_is_locked, lock);
     97c:	b8 e6 02 00 00       	mov    $0x2e6,%eax
     981:	ff 15 00 00 00 00    	call   *0x0
     987:	85 c0                	test   %eax,%eax
     989:	75 7d                	jne    a08 <__fsm_pending_expev+0xf8>
     98b:	b8 e6 02 00 00       	mov    $0x2e6,%eax
     990:	e8 fc ff ff ff       	call   991 <__fsm_pending_expev+0x81>
	__list_del(entry->prev, entry->next);
}

static inline void list_del(struct list_head *entry)
{
	__list_del(entry->prev, entry->next);
     995:	8b 4e 04             	mov    0x4(%esi),%ecx
     998:	8b 3e                	mov    (%esi),%edi
 * This is only for internal list manipulation where we know
 * the prev/next entries already!
 */
static inline void __list_del(struct list_head * prev, struct list_head * next)
{
	next->prev = prev;
     99a:	89 4f 04             	mov    %ecx,0x4(%edi)
     99d:	89 c2                	mov    %eax,%edx
     99f:	b8 e6 02 00 00       	mov    $0x2e6,%eax
	prev->next = next;
     9a4:	89 39                	mov    %edi,(%ecx)
}

static inline void list_del(struct list_head *entry)
{
	__list_del(entry->prev, entry->next);
	entry->next = LIST_POISON1;
     9a6:	c7 06 00 01 10 00    	movl   $0x100100,(%esi)
	entry->prev = LIST_POISON2;
     9ac:	c7 46 04 00 02 20 00 	movl   $0x200200,0x4(%esi)
     9b3:	e8 fc ff ff ff       	call   9b4 <__fsm_pending_expev+0xa4>
     9b8:	89 d8                	mov    %ebx,%eax
     9ba:	e8 fc ff ff ff       	call   9bb <__fsm_pending_expev+0xab>
     9bf:	8b 45 f0             	mov    -0x10(%ebp),%eax
     9c2:	e8 fc ff ff ff       	call   9c3 <__fsm_pending_expev+0xb3>
 * list_empty - tests whether a list is empty
 * @head: the list to test.
 */
static inline int list_empty(const struct list_head *head)
{
	return head->next == head;
     9c7:	8b 35 dc 02 00 00    	mov    0x2dc,%esi
     9cd:	81 fe dc 02 00 00    	cmp    $0x2dc,%esi
     9d3:	74 4b                	je     a20 <__fsm_pending_expev+0x110>
     9d5:	8d 46 fc             	lea    -0x4(%esi),%eax
     9d8:	8b 5e fc             	mov    -0x4(%esi),%ebx
     9db:	89 45 f0             	mov    %eax,-0x10(%ebp)
     9de:	b8 b4 02 00 00       	mov    $0x2b4,%eax
     9e3:	ff 15 00 00 00 00    	call   *0x0
     9e9:	85 c0                	test   %eax,%eax
     9eb:	0f 84 47 ff ff ff    	je     938 <__fsm_pending_expev+0x28>
     9f1:	c7 04 24 00 00 00 00 	movl   $0x0,(%esp)
     9f8:	e8 fc ff ff ff       	call   9f9 <__fsm_pending_expev+0xe9>
     9fd:	e9 36 ff ff ff       	jmp    938 <__fsm_pending_expev+0x28>
     a02:	8d b6 00 00 00 00    	lea    0x0(%esi),%esi
     a08:	c7 04 24 2c 00 00 00 	movl   $0x2c,(%esp)
     a0f:	e8 fc ff ff ff       	call   a10 <__fsm_pending_expev+0x100>
     a14:	e9 72 ff ff ff       	jmp    98b <__fsm_pending_expev+0x7b>
     a19:	8d b4 26 00 00 00 00 	lea    0x0(%esi,%eiz,1),%esi
     a20:	83 c4 18             	add    $0x18,%esp
     a23:	5b                   	pop    %ebx
     a24:	5e                   	pop    %esi
     a25:	5f                   	pop    %edi
     a26:	5d                   	pop    %ebp
     a27:	c3                   	ret    
     a28:	90                   	nop
     a29:	8d b4 26 00 00 00 00 	lea    0x0(%esi,%eiz,1),%esi

00000a30 <__fsm_tm_expire>:
     a30:	55                   	push   %ebp
     a31:	89 e5                	mov    %esp,%ebp
     a33:	57                   	push   %edi
     a34:	56                   	push   %esi
     a35:	53                   	push   %ebx
     a36:	83 ec 08             	sub    $0x8,%esp
     a39:	e8 fc ff ff ff       	call   a3a <__fsm_tm_expire+0xa>
     a3e:	e8 fc ff ff ff       	call   a3f <__fsm_tm_expire+0xf>
     a43:	c7 05 44 02 00 00 02 	movl   $0x2,0x244
     a4a:	00 00 00 
     a4d:	89 c6                	mov    %eax,%esi
     a4f:	89 d7                	mov    %edx,%edi
     a51:	b8 e8 02 00 00       	mov    $0x2e8,%eax
     a56:	ff 15 00 00 00 00    	call   *0x0
     a5c:	85 c0                	test   %eax,%eax
     a5e:	0f 85 9c 00 00 00    	jne    b00 <__fsm_tm_expire+0xd0>
     a64:	b8 e8 02 00 00       	mov    $0x2e8,%eax
     a69:	e8 fc ff ff ff       	call   a6a <__fsm_tm_expire+0x3a>
     a6e:	8b 1d 88 02 00 00    	mov    0x288,%ebx
     a74:	85 db                	test   %ebx,%ebx
     a76:	89 45 f0             	mov    %eax,-0x10(%ebp)
     a79:	74 15                	je     a90 <__fsm_tm_expire+0x60>
     a7b:	8b 43 08             	mov    0x8(%ebx),%eax
     a7e:	8b 53 0c             	mov    0xc(%ebx),%edx
     a81:	29 f0                	sub    %esi,%eax
     a83:	19 fa                	sbb    %edi,%edx
     a85:	83 fa 00             	cmp    $0x0,%edx
     a88:	0f 8e a2 00 00 00    	jle    b30 <__fsm_tm_expire+0x100>
     a8e:	66 90                	xchg   %ax,%ax
     a90:	8b 55 f0             	mov    -0x10(%ebp),%edx
     a93:	b8 e8 02 00 00       	mov    $0x2e8,%eax
     a98:	e8 fc ff ff ff       	call   a99 <__fsm_tm_expire+0x69>
     a9d:	a1 cc 02 00 00       	mov    0x2cc,%eax
     aa2:	f0 0f ba 68 04 00    	lock btsl $0x0,0x4(%eax)
     aa8:	19 d2                	sbb    %edx,%edx

extern void __tasklet_schedule(struct tasklet_struct *t);

static inline void tasklet_schedule(struct tasklet_struct *t)
{
	if (!test_and_set_bit(TASKLET_STATE_SCHED, &t->state))
     aaa:	85 d2                	test   %edx,%edx
     aac:	74 42                	je     af0 <__fsm_tm_expire+0xc0>
     aae:	a1 88 02 00 00       	mov    0x288,%eax
     ab3:	85 c0                	test   %eax,%eax
     ab5:	74 61                	je     b18 <__fsm_tm_expire+0xe8>
     ab7:	8b 50 0c             	mov    0xc(%eax),%edx
     aba:	8b 40 08             	mov    0x8(%eax),%eax
     abd:	c7 05 44 02 00 00 01 	movl   $0x1,0x244
     ac4:	00 00 00 
	struct hrtimer_clock_base	clock_base[HRTIMER_MAX_CLOCK_BASES];
};

static inline void hrtimer_set_expires(struct hrtimer *timer, ktime_t time)
{
	timer->node.expires = time;
     ac7:	89 15 58 02 00 00    	mov    %edx,0x258
     acd:	a3 54 02 00 00       	mov    %eax,0x254
	timer->_softexpires = time;
     ad2:	a3 5c 02 00 00       	mov    %eax,0x25c
     ad7:	b8 01 00 00 00       	mov    $0x1,%eax
     adc:	89 15 60 02 00 00    	mov    %edx,0x260
     ae2:	83 c4 08             	add    $0x8,%esp
     ae5:	5b                   	pop    %ebx
     ae6:	5e                   	pop    %esi
     ae7:	5f                   	pop    %edi
     ae8:	5d                   	pop    %ebp
     ae9:	c3                   	ret    
     aea:	8d b6 00 00 00 00    	lea    0x0(%esi),%esi
		__tasklet_schedule(t);
     af0:	e8 fc ff ff ff       	call   af1 <__fsm_tm_expire+0xc1>
     af5:	a1 88 02 00 00       	mov    0x288,%eax
     afa:	85 c0                	test   %eax,%eax
     afc:	75 b9                	jne    ab7 <__fsm_tm_expire+0x87>
     afe:	eb 18                	jmp    b18 <__fsm_tm_expire+0xe8>
     b00:	c7 04 24 00 00 00 00 	movl   $0x0,(%esp)
     b07:	e8 fc ff ff ff       	call   b08 <__fsm_tm_expire+0xd8>
     b0c:	31 c0                	xor    %eax,%eax
     b0e:	83 c4 08             	add    $0x8,%esp
     b11:	5b                   	pop    %ebx
     b12:	5e                   	pop    %esi
     b13:	5f                   	pop    %edi
     b14:	5d                   	pop    %ebp
     b15:	c3                   	ret    
     b16:	66 90                	xchg   %ax,%ax
     b18:	c7 05 44 02 00 00 00 	movl   $0x0,0x244
     b1f:	00 00 00 
     b22:	83 c4 08             	add    $0x8,%esp
     b25:	31 c0                	xor    %eax,%eax
     b27:	5b                   	pop    %ebx
     b28:	5e                   	pop    %esi
     b29:	5f                   	pop    %edi
     b2a:	5d                   	pop    %ebp
     b2b:	c3                   	ret    
     b2c:	8d 74 26 00          	lea    0x0(%esi,%eiz,1),%esi
     b30:	7c 0f                	jl     b41 <__fsm_tm_expire+0x111>
     b32:	8d b6 00 00 00 00    	lea    0x0(%esi),%esi
     b38:	83 f8 00             	cmp    $0x0,%eax
     b3b:	0f 87 4f ff ff ff    	ja     a90 <__fsm_tm_expire+0x60>
     b41:	8b 03                	mov    (%ebx),%eax
     b43:	a3 88 02 00 00       	mov    %eax,0x288
     b48:	b8 0c 00 00 00       	mov    $0xc,%eax
     b4d:	e8 fc ff ff ff       	call   b4e <__fsm_tm_expire+0x11e>
     b52:	89 18                	mov    %ebx,(%eax)
 * Insert a new entry before the specified head.
 * This is useful for implementing queues.
 */
static inline void list_add_tail(struct list_head *new, struct list_head *head)
{
	__list_add(new, head->prev, head);
     b54:	8b 15 e0 02 00 00    	mov    0x2e0,%edx
     b5a:	8d 48 04             	lea    0x4(%eax),%ecx
#ifndef CONFIG_DEBUG_LIST
static inline void __list_add(struct list_head *new,
			      struct list_head *prev,
			      struct list_head *next)
{
	next->prev = new;
     b5d:	89 0d e0 02 00 00    	mov    %ecx,0x2e0
	new->next = next;
     b63:	c7 40 04 dc 02 00 00 	movl   $0x2dc,0x4(%eax)
	new->prev = prev;
     b6a:	89 50 08             	mov    %edx,0x8(%eax)
	prev->next = new;
     b6d:	89 0a                	mov    %ecx,(%edx)
     b6f:	8b 1d 88 02 00 00    	mov    0x288,%ebx
     b75:	85 db                	test   %ebx,%ebx
     b77:	0f 84 13 ff ff ff    	je     a90 <__fsm_tm_expire+0x60>
     b7d:	8b 43 08             	mov    0x8(%ebx),%eax
     b80:	8b 53 0c             	mov    0xc(%ebx),%edx
     b83:	29 f0                	sub    %esi,%eax
     b85:	19 fa                	sbb    %edi,%edx
     b87:	83 fa 00             	cmp    $0x0,%edx
     b8a:	7c b5                	jl     b41 <__fsm_tm_expire+0x111>
     b8c:	0f 8f fe fe ff ff    	jg     a90 <__fsm_tm_expire+0x60>
     b92:	eb a4                	jmp    b38 <__fsm_tm_expire+0x108>
     b94:	8d b6 00 00 00 00    	lea    0x0(%esi),%esi
     b9a:	8d bf 00 00 00 00    	lea    0x0(%edi),%edi

00000ba0 <fsm_octets_print>:
     ba0:	55                   	push   %ebp
     ba1:	89 e5                	mov    %esp,%ebp
     ba3:	57                   	push   %edi
     ba4:	56                   	push   %esi
     ba5:	53                   	push   %ebx
     ba6:	83 ec 08             	sub    $0x8,%esp
     ba9:	e8 fc ff ff ff       	call   baa <fsm_octets_print+0xa>
     bae:	89 d7                	mov    %edx,%edi
     bb0:	89 c3                	mov    %eax,%ebx
     bb2:	c7 04 24 64 00 00 00 	movl   $0x64,(%esp)
     bb9:	e8 fc ff ff ff       	call   bba <fsm_octets_print+0x1a>
     bbe:	85 ff                	test   %edi,%edi
     bc0:	0f 84 aa 00 00 00    	je     c70 <fsm_octets_print+0xd0>
     bc6:	0f b6 03             	movzbl (%ebx),%eax
     bc9:	be 01 00 00 00       	mov    $0x1,%esi
     bce:	c7 04 24 0b 00 00 00 	movl   $0xb,(%esp)
     bd5:	c0 e8 04             	shr    $0x4,%al
     bd8:	0f b6 c0             	movzbl %al,%eax
     bdb:	89 44 24 04          	mov    %eax,0x4(%esp)
     bdf:	e8 fc ff ff ff       	call   be0 <fsm_octets_print+0x40>
     be4:	0f b6 03             	movzbl (%ebx),%eax
     be7:	83 e0 0f             	and    $0xf,%eax
     bea:	89 44 24 04          	mov    %eax,0x4(%esp)
     bee:	c7 04 24 0b 00 00 00 	movl   $0xb,(%esp)
     bf5:	e8 fc ff ff ff       	call   bf6 <fsm_octets_print+0x56>
     bfa:	c7 04 24 0e 00 00 00 	movl   $0xe,(%esp)
     c01:	e8 fc ff ff ff       	call   c02 <fsm_octets_print+0x62>
     c06:	66 90                	xchg   %ax,%ax
     c08:	83 c6 01             	add    $0x1,%esi
     c0b:	39 fe                	cmp    %edi,%esi
     c0d:	77 61                	ja     c70 <fsm_octets_print+0xd0>
     c0f:	0f b6 44 33 ff       	movzbl -0x1(%ebx,%esi,1),%eax
     c14:	c7 04 24 0b 00 00 00 	movl   $0xb,(%esp)
     c1b:	c0 e8 04             	shr    $0x4,%al
     c1e:	0f b6 c0             	movzbl %al,%eax
     c21:	89 44 24 04          	mov    %eax,0x4(%esp)
     c25:	e8 fc ff ff ff       	call   c26 <fsm_octets_print+0x86>
     c2a:	0f b6 44 33 ff       	movzbl -0x1(%ebx,%esi,1),%eax
     c2f:	83 e0 0f             	and    $0xf,%eax
     c32:	89 44 24 04          	mov    %eax,0x4(%esp)
     c36:	c7 04 24 0b 00 00 00 	movl   $0xb,(%esp)
     c3d:	e8 fc ff ff ff       	call   c3e <fsm_octets_print+0x9e>
     c42:	c7 04 24 0e 00 00 00 	movl   $0xe,(%esp)
     c49:	e8 fc ff ff ff       	call   c4a <fsm_octets_print+0xaa>
     c4e:	83 fe 0f             	cmp    $0xf,%esi
     c51:	7e b5                	jle    c08 <fsm_octets_print+0x68>
     c53:	f7 c6 0f 00 00 00    	test   $0xf,%esi
     c59:	75 ad                	jne    c08 <fsm_octets_print+0x68>
     c5b:	83 c6 01             	add    $0x1,%esi
     c5e:	c7 04 24 10 00 00 00 	movl   $0x10,(%esp)
     c65:	e8 fc ff ff ff       	call   c66 <fsm_octets_print+0xc6>
     c6a:	39 fe                	cmp    %edi,%esi
     c6c:	76 a1                	jbe    c0f <fsm_octets_print+0x6f>
     c6e:	66 90                	xchg   %ax,%ax
     c70:	c7 04 24 10 00 00 00 	movl   $0x10,(%esp)
     c77:	e8 fc ff ff ff       	call   c78 <fsm_octets_print+0xd8>
     c7c:	c7 04 24 64 00 00 00 	movl   $0x64,(%esp)
     c83:	e8 fc ff ff ff       	call   c84 <fsm_octets_print+0xe4>
     c88:	89 f8                	mov    %edi,%eax
     c8a:	83 c4 08             	add    $0x8,%esp
     c8d:	5b                   	pop    %ebx
     c8e:	5e                   	pop    %esi
     c8f:	5f                   	pop    %edi
     c90:	5d                   	pop    %ebp
     c91:	c3                   	ret    
     c92:	8d b4 26 00 00 00 00 	lea    0x0(%esi,%eiz,1),%esi
     c99:	8d bc 27 00 00 00 00 	lea    0x0(%edi,%eiz,1),%edi

00000ca0 <fsm_htons>:
     ca0:	55                   	push   %ebp
     ca1:	89 e5                	mov    %esp,%ebp
     ca3:	e8 fc ff ff ff       	call   ca4 <fsm_htons+0x4>
     ca8:	5d                   	pop    %ebp
static inline __attribute_const__ __u16 __fswab16(__u16 val)
{
#ifdef __arch_swab16
	return __arch_swab16(val);
#else
	return ___constant_swab16(val);
     ca9:	66 c1 c0 08          	rol    $0x8,%ax
     cad:	c3                   	ret    
     cae:	66 90                	xchg   %ax,%ax

00000cb0 <fsm_htonl>:
     cb0:	55                   	push   %ebp
     cb1:	89 e5                	mov    %esp,%ebp
     cb3:	e8 fc ff ff ff       	call   cb4 <fsm_htonl+0x4>

static inline __attribute_const__ __u32 __arch_swab32(__u32 val)
{
#ifdef __i386__
# ifdef CONFIG_X86_BSWAP
	asm("bswap %0" : "=r" (val) : "0" (val));
     cb8:	0f c8                	bswap  %eax
     cba:	5d                   	pop    %ebp
     cbb:	c3                   	ret    
     cbc:	8d 74 26 00          	lea    0x0(%esi,%eiz,1),%esi

00000cc0 <fsm_ntohs>:
     cc0:	55                   	push   %ebp
     cc1:	89 e5                	mov    %esp,%ebp
     cc3:	e8 fc ff ff ff       	call   cc4 <fsm_ntohs+0x4>
     cc8:	5d                   	pop    %ebp
     cc9:	66 c1 c0 08          	rol    $0x8,%ax
     ccd:	c3                   	ret    
     cce:	66 90                	xchg   %ax,%ax

00000cd0 <fsm_ntohl>:
     cd0:	55                   	push   %ebp
     cd1:	89 e5                	mov    %esp,%ebp
     cd3:	e8 fc ff ff ff       	call   cd4 <fsm_ntohl+0x4>
     cd8:	0f c8                	bswap  %eax
     cda:	5d                   	pop    %ebp
     cdb:	c3                   	ret    
     cdc:	8d 74 26 00          	lea    0x0(%esi,%eiz,1),%esi

00000ce0 <fsm_schedule_self>:
     ce0:	55                   	push   %ebp
     ce1:	89 e5                	mov    %esp,%ebp
     ce3:	53                   	push   %ebx
     ce4:	83 ec 0c             	sub    $0xc,%esp
     ce7:	e8 fc ff ff ff       	call   ce8 <fsm_schedule_self+0x8>
     cec:	8b 1d 20 00 00 00    	mov    0x20,%ebx
     cf2:	89 d1                	mov    %edx,%ecx
     cf4:	ba 03 00 00 00       	mov    $0x3,%edx
     cf9:	89 5c 24 04          	mov    %ebx,0x4(%esp)
     cfd:	89 1c 24             	mov    %ebx,(%esp)
     d00:	c7 44 24 08 00 00 00 	movl   $0x0,0x8(%esp)
     d07:	00 
     d08:	e8 33 fa ff ff       	call   740 <__fsm_tm_ev_add.constprop.7>
     d0d:	83 c4 0c             	add    $0xc,%esp
     d10:	5b                   	pop    %ebx
     d11:	5d                   	pop    %ebp
     d12:	c3                   	ret    
     d13:	8d b6 00 00 00 00    	lea    0x0(%esi),%esi
     d19:	8d bc 27 00 00 00 00 	lea    0x0(%edi,%eiz,1),%edi

00000d20 <fsm_schedule_exfsm>:
     d20:	55                   	push   %ebp
     d21:	89 e5                	mov    %esp,%ebp
     d23:	83 ec 0c             	sub    $0xc,%esp
     d26:	e8 fc ff ff ff       	call   d27 <fsm_schedule_exfsm+0x7>
     d2b:	89 4c 24 04          	mov    %ecx,0x4(%esp)
     d2f:	8b 0d 20 00 00 00    	mov    0x20,%ecx
     d35:	c7 44 24 08 00 00 00 	movl   $0x0,0x8(%esp)
     d3c:	00 
     d3d:	89 0c 24             	mov    %ecx,(%esp)
     d40:	89 d1                	mov    %edx,%ecx
     d42:	ba 04 00 00 00       	mov    $0x4,%edx
     d47:	e8 f4 f9 ff ff       	call   740 <__fsm_tm_ev_add.constprop.7>
     d4c:	c9                   	leave  
     d4d:	c3                   	ret    
     d4e:	66 90                	xchg   %ax,%ax

00000d50 <fsm_post_msg>:
     d50:	55                   	push   %ebp
     d51:	89 e5                	mov    %esp,%ebp
     d53:	83 ec 20             	sub    $0x20,%esp
     d56:	89 5d f4             	mov    %ebx,-0xc(%ebp)
     d59:	89 75 f8             	mov    %esi,-0x8(%ebp)
     d5c:	89 7d fc             	mov    %edi,-0x4(%ebp)
     d5f:	e8 fc ff ff ff       	call   d60 <fsm_post_msg+0x10>
     d64:	89 cf                	mov    %ecx,%edi
     d66:	8b 4d 08             	mov    0x8(%ebp),%ecx
     d69:	89 d6                	mov    %edx,%esi
     d6b:	89 45 f0             	mov    %eax,-0x10(%ebp)
     d6e:	89 c8                	mov    %ecx,%eax
     d70:	89 4d ec             	mov    %ecx,-0x14(%ebp)
     d73:	e8 fc ff ff ff       	call   d74 <fsm_post_msg+0x24>
     d78:	8b 4d ec             	mov    -0x14(%ebp),%ecx
     d7b:	89 f2                	mov    %esi,%edx
     d7d:	89 c3                	mov    %eax,%ebx
     d7f:	e8 fc ff ff ff       	call   d80 <fsm_post_msg+0x30>
     d84:	a1 20 00 00 00       	mov    0x20,%eax
     d89:	ba 06 00 00 00       	mov    $0x6,%edx
     d8e:	8b 4d f0             	mov    -0x10(%ebp),%ecx
     d91:	89 04 24             	mov    %eax,(%esp)
     d94:	31 c0                	xor    %eax,%eax
     d96:	89 5c 24 08          	mov    %ebx,0x8(%esp)
     d9a:	89 7c 24 04          	mov    %edi,0x4(%esp)
     d9e:	e8 9d f9 ff ff       	call   740 <__fsm_tm_ev_add.constprop.7>
     da3:	8b 5d f4             	mov    -0xc(%ebp),%ebx
     da6:	8b 75 f8             	mov    -0x8(%ebp),%esi
     da9:	8b 7d fc             	mov    -0x4(%ebp),%edi
     dac:	89 ec                	mov    %ebp,%esp
     dae:	5d                   	pop    %ebp
     daf:	c3                   	ret    

00000db0 <fsm_schedule_cancel>:
     db0:	55                   	push   %ebp
     db1:	89 e5                	mov    %esp,%ebp
     db3:	56                   	push   %esi
     db4:	53                   	push   %ebx
     db5:	e8 fc ff ff ff       	call   db6 <fsm_schedule_cancel+0x6>
     dba:	89 c3                	mov    %eax,%ebx
     dbc:	b8 ff ff ff ff       	mov    $0xffffffff,%eax
     dc1:	81 7b 04 d6 96 0f 04 	cmpl   $0x40f96d6,0x4(%ebx)
     dc8:	75 43                	jne    e0d <fsm_schedule_cancel+0x5d>
     dca:	8b 35 88 02 00 00    	mov    0x288,%esi
     dd0:	85 f6                	test   %esi,%esi
     dd2:	74 39                	je     e0d <fsm_schedule_cancel+0x5d>
     dd4:	b8 e8 02 00 00       	mov    $0x2e8,%eax
     dd9:	e8 fc ff ff ff       	call   dda <fsm_schedule_cancel+0x2a>
     dde:	8b 15 88 02 00 00    	mov    0x288,%edx
     de4:	39 d3                	cmp    %edx,%ebx
     de6:	89 c6                	mov    %eax,%esi
     de8:	75 0c                	jne    df6 <fsm_schedule_cancel+0x46>
     dea:	eb 49                	jmp    e35 <fsm_schedule_cancel+0x85>
     dec:	8d 74 26 00          	lea    0x0(%esi,%eiz,1),%esi
     df0:	39 c3                	cmp    %eax,%ebx
     df2:	74 24                	je     e18 <fsm_schedule_cancel+0x68>
     df4:	89 c2                	mov    %eax,%edx
     df6:	8b 02                	mov    (%edx),%eax
     df8:	85 c0                	test   %eax,%eax
     dfa:	75 f4                	jne    df0 <fsm_schedule_cancel+0x40>
     dfc:	b8 e8 02 00 00       	mov    $0x2e8,%eax
     e01:	89 f2                	mov    %esi,%edx
     e03:	e8 fc ff ff ff       	call   e04 <fsm_schedule_cancel+0x54>
     e08:	b8 ff ff ff ff       	mov    $0xffffffff,%eax
     e0d:	5b                   	pop    %ebx
     e0e:	5e                   	pop    %esi
     e0f:	5d                   	pop    %ebp
     e10:	c3                   	ret    
     e11:	8d b4 26 00 00 00 00 	lea    0x0(%esi,%eiz,1),%esi
     e18:	8b 03                	mov    (%ebx),%eax
     e1a:	89 02                	mov    %eax,(%edx)
     e1c:	89 d8                	mov    %ebx,%eax
     e1e:	e8 fc ff ff ff       	call   e1f <fsm_schedule_cancel+0x6f>
     e23:	89 f2                	mov    %esi,%edx
     e25:	b8 e8 02 00 00       	mov    $0x2e8,%eax
     e2a:	e8 fc ff ff ff       	call   e2b <fsm_schedule_cancel+0x7b>
     e2f:	31 c0                	xor    %eax,%eax
     e31:	5b                   	pop    %ebx
     e32:	5e                   	pop    %esi
     e33:	5d                   	pop    %ebp
     e34:	c3                   	ret    
     e35:	8b 03                	mov    (%ebx),%eax
     e37:	83 3d 44 02 00 00 02 	cmpl   $0x2,0x244
     e3e:	a3 88 02 00 00       	mov    %eax,0x288
     e43:	74 05                	je     e4a <fsm_schedule_cancel+0x9a>
     e45:	e8 e6 f2 ff ff       	call   130 <__fsm_tm_restart>
     e4a:	89 d8                	mov    %ebx,%eax
     e4c:	e8 fc ff ff ff       	call   e4d <fsm_schedule_cancel+0x9d>
     e51:	8b 1d 88 02 00 00    	mov    0x288,%ebx
     e57:	85 db                	test   %ebx,%ebx
     e59:	75 c8                	jne    e23 <fsm_schedule_cancel+0x73>
     e5b:	b8 48 02 00 00       	mov    $0x248,%eax
     e60:	c7 05 44 02 00 00 00 	movl   $0x0,0x244
     e67:	00 00 00 
     e6a:	e8 fc ff ff ff       	call   e6b <fsm_schedule_cancel+0xbb>
     e6f:	eb b2                	jmp    e23 <fsm_schedule_cancel+0x73>
     e71:	eb 0d                	jmp    e80 <fsm_do_ioctrl>
     e73:	90                   	nop
     e74:	90                   	nop
     e75:	90                   	nop
     e76:	90                   	nop
     e77:	90                   	nop
     e78:	90                   	nop
     e79:	90                   	nop
     e7a:	90                   	nop
     e7b:	90                   	nop
     e7c:	90                   	nop
     e7d:	90                   	nop
     e7e:	90                   	nop
     e7f:	90                   	nop

00000e80 <fsm_do_ioctrl>:
     e80:	55                   	push   %ebp
     e81:	89 e5                	mov    %esp,%ebp
     e83:	83 ec 14             	sub    $0x14,%esp
     e86:	89 5d f4             	mov    %ebx,-0xc(%ebp)
     e89:	89 75 f8             	mov    %esi,-0x8(%ebp)
     e8c:	89 7d fc             	mov    %edi,-0x4(%ebp)
     e8f:	e8 fc ff ff ff       	call   e90 <fsm_do_ioctrl+0x10>
     e94:	8b 7d 08             	mov    0x8(%ebp),%edi
     e97:	c1 e0 04             	shl    $0x4,%eax
     e9a:	89 d6                	mov    %edx,%esi
     e9c:	8b 90 4c 00 00 00    	mov    0x4c(%eax),%edx
     ea2:	b8 18 00 00 00       	mov    $0x18,%eax
     ea7:	89 4d f0             	mov    %ecx,-0x10(%ebp)
     eaa:	89 55 ec             	mov    %edx,-0x14(%ebp)
     ead:	e8 fc ff ff ff       	call   eae <fsm_do_ioctrl+0x2e>
     eb2:	8b 55 ec             	mov    -0x14(%ebp),%edx
     eb5:	85 ff                	test   %edi,%edi
     eb7:	89 c3                	mov    %eax,%ebx
     eb9:	89 10                	mov    %edx,(%eax)
     ebb:	89 70 04             	mov    %esi,0x4(%eax)
     ebe:	89 78 08             	mov    %edi,0x8(%eax)
     ec1:	75 65                	jne    f28 <fsm_do_ioctrl+0xa8>
     ec3:	c7 43 0c 00 00 00 00 	movl   $0x0,0xc(%ebx)
	raw_spin_lock_init(&(_lock)->rlock);		\
} while (0)

static inline void spin_lock(spinlock_t *lock)
{
	raw_spin_lock(&lock->rlock);
     eca:	b8 e4 02 00 00       	mov    $0x2e4,%eax
     ecf:	e8 fc ff ff ff       	call   ed0 <fsm_do_ioctrl+0x50>
 * Insert a new entry before the specified head.
 * This is useful for implementing queues.
 */
static inline void list_add_tail(struct list_head *new, struct list_head *head)
{
	__list_add(new, head->prev, head);
     ed4:	a1 d8 02 00 00       	mov    0x2d8,%eax
     ed9:	8d 53 10             	lea    0x10(%ebx),%edx
#ifndef CONFIG_DEBUG_LIST
static inline void __list_add(struct list_head *new,
			      struct list_head *prev,
			      struct list_head *next)
{
	next->prev = new;
     edc:	89 15 d8 02 00 00    	mov    %edx,0x2d8
	new->next = next;
     ee2:	c7 43 10 d4 02 00 00 	movl   $0x2d4,0x10(%ebx)
	new->prev = prev;
     ee9:	89 43 14             	mov    %eax,0x14(%ebx)
	prev->next = new;
     eec:	89 10                	mov    %edx,(%eax)
	return PVOP_CALL1(int, pv_lock_ops.spin_trylock, lock);
}

static __always_inline void arch_spin_unlock(struct arch_spinlock *lock)
{
	PVOP_VCALL1(pv_lock_ops.spin_unlock, lock);
     eee:	b8 e4 02 00 00       	mov    $0x2e4,%eax
     ef3:	ff 15 14 00 00 00    	call   *0x14
     ef9:	a1 c8 02 00 00       	mov    0x2c8,%eax
     efe:	f0 0f ba 68 04 00    	lock btsl $0x0,0x4(%eax)
     f04:	19 d2                	sbb    %edx,%edx

extern void __tasklet_schedule(struct tasklet_struct *t);

static inline void tasklet_schedule(struct tasklet_struct *t)
{
	if (!test_and_set_bit(TASKLET_STATE_SCHED, &t->state))
     f06:	85 d2                	test   %edx,%edx
     f08:	75 05                	jne    f0f <fsm_do_ioctrl+0x8f>
		__tasklet_schedule(t);
     f0a:	e8 fc ff ff ff       	call   f0b <fsm_do_ioctrl+0x8b>
     f0f:	8b 5d f4             	mov    -0xc(%ebp),%ebx
     f12:	b8 01 00 00 00       	mov    $0x1,%eax
     f17:	8b 75 f8             	mov    -0x8(%ebp),%esi
     f1a:	8b 7d fc             	mov    -0x4(%ebp),%edi
     f1d:	89 ec                	mov    %ebp,%esp
     f1f:	5d                   	pop    %ebp
     f20:	c3                   	ret    
     f21:	8d b4 26 00 00 00 00 	lea    0x0(%esi,%eiz,1),%esi
     f28:	8b 45 f0             	mov    -0x10(%ebp),%eax
     f2b:	85 c0                	test   %eax,%eax
     f2d:	74 94                	je     ec3 <fsm_do_ioctrl+0x43>
     f2f:	89 f8                	mov    %edi,%eax
     f31:	e8 fc ff ff ff       	call   f32 <fsm_do_ioctrl+0xb2>
     f36:	8b 55 f0             	mov    -0x10(%ebp),%edx
     f39:	89 f9                	mov    %edi,%ecx
     f3b:	89 43 0c             	mov    %eax,0xc(%ebx)
     f3e:	e8 fc ff ff ff       	call   f3f <fsm_do_ioctrl+0xbf>
     f43:	eb 85                	jmp    eca <fsm_do_ioctrl+0x4a>
     f45:	8d 74 26 00          	lea    0x0(%esi,%eiz,1),%esi
     f49:	8d bc 27 00 00 00 00 	lea    0x0(%edi,%eiz,1),%edi

00000f50 <fsm_ioctrl_arrival>:
     f50:	55                   	push   %ebp
     f51:	89 e5                	mov    %esp,%ebp
     f53:	83 ec 28             	sub    $0x28,%esp
     f56:	89 5d f4             	mov    %ebx,-0xc(%ebp)
     f59:	89 75 f8             	mov    %esi,-0x8(%ebp)
     f5c:	89 7d fc             	mov    %edi,-0x4(%ebp)
     f5f:	e8 fc ff ff ff       	call   f60 <fsm_ioctrl_arrival+0x10>
     f64:	81 fa f0 89 00 00    	cmp    $0x89f0,%edx
     f6a:	89 c3                	mov    %eax,%ebx
     f6c:	0f 84 b6 00 00 00    	je     1028 <fsm_ioctrl_arrival+0xd8>
     f72:	81 fa f1 89 00 00    	cmp    $0x89f1,%edx
     f78:	74 16                	je     f90 <fsm_ioctrl_arrival+0x40>
     f7a:	8b 5d f4             	mov    -0xc(%ebp),%ebx
     f7d:	b8 01 00 00 00       	mov    $0x1,%eax
     f82:	8b 75 f8             	mov    -0x8(%ebp),%esi
     f85:	8b 7d fc             	mov    -0x4(%ebp),%edi
     f88:	89 ec                	mov    %ebp,%esp
     f8a:	5d                   	pop    %ebp
     f8b:	c3                   	ret    
     f8c:	8d 74 26 00          	lea    0x0(%esi,%eiz,1),%esi
					  unsigned long n)
{
	int sz = __compiletime_object_size(to);

	if (likely(sz == -1 || sz >= n))
		n = _copy_from_user(to, from, n);
     f90:	8b 50 10             	mov    0x10(%eax),%edx
     f93:	b9 0c 00 00 00       	mov    $0xc,%ecx
     f98:	8d 45 e8             	lea    -0x18(%ebp),%eax
     f9b:	e8 fc ff ff ff       	call   f9c <fsm_ioctrl_arrival+0x4c>
     fa0:	8b 45 f0             	mov    -0x10(%ebp),%eax
     fa3:	85 c0                	test   %eax,%eax
     fa5:	0f 84 cd 00 00 00    	je     1078 <fsm_ioctrl_arrival+0x128>
     fab:	8b 45 ec             	mov    -0x14(%ebp),%eax
     fae:	e8 fc ff ff ff       	call   faf <fsm_ioctrl_arrival+0x5f>
     fb3:	8b 4d ec             	mov    -0x14(%ebp),%ecx
     fb6:	8b 55 f0             	mov    -0x10(%ebp),%edx
     fb9:	89 c6                	mov    %eax,%esi
     fbb:	e8 fc ff ff ff       	call   fbc <fsm_ioctrl_arrival+0x6c>
     fc0:	b8 b4 02 00 00       	mov    $0x2b4,%eax
     fc5:	e8 fc ff ff ff       	call   fc6 <fsm_ioctrl_arrival+0x76>
     fca:	31 c9                	xor    %ecx,%ecx
     fcc:	ba 02 00 00 00       	mov    $0x2,%edx
     fd1:	89 c7                	mov    %eax,%edi
     fd3:	8b 45 e8             	mov    -0x18(%ebp),%eax
     fd6:	89 74 24 08          	mov    %esi,0x8(%esp)
     fda:	c7 04 24 01 00 00 00 	movl   $0x1,(%esp)
     fe1:	89 44 24 0c          	mov    %eax,0xc(%esp)
     fe5:	a1 8c 02 00 00       	mov    0x28c,%eax
     fea:	89 44 24 04          	mov    %eax,0x4(%esp)
     fee:	b8 05 00 00 00       	mov    $0x5,%eax
     ff3:	e8 38 f4 ff ff       	call   430 <__fsm_core_self_drive>
	raw_spin_unlock_irq(&lock->rlock);
}

static inline void spin_unlock_irqrestore(spinlock_t *lock, unsigned long flags)
{
	raw_spin_unlock_irqrestore(&lock->rlock, flags);
     ff8:	89 fa                	mov    %edi,%edx
     ffa:	b8 b4 02 00 00       	mov    $0x2b4,%eax
     fff:	e8 fc ff ff ff       	call   1000 <fsm_ioctrl_arrival+0xb0>
    1004:	8b 4d ec             	mov    -0x14(%ebp),%ecx
    1007:	89 f2                	mov    %esi,%edx
    1009:	8b 45 f0             	mov    -0x10(%ebp),%eax
    100c:	e8 fc ff ff ff       	call   100d <fsm_ioctrl_arrival+0xbd>
    1011:	8b 43 10             	mov    0x10(%ebx),%eax
    1014:	b9 0c 00 00 00       	mov    $0xc,%ecx
    1019:	8d 55 e8             	lea    -0x18(%ebp),%edx
    101c:	e8 fc ff ff ff       	call   101d <fsm_ioctrl_arrival+0xcd>
    1021:	e9 54 ff ff ff       	jmp    f7a <fsm_ioctrl_arrival+0x2a>
    1026:	66 90                	xchg   %ax,%ax
    1028:	b8 b4 02 00 00       	mov    $0x2b4,%eax
    102d:	e8 fc ff ff ff       	call   102e <fsm_ioctrl_arrival+0xde>
    1032:	31 c9                	xor    %ecx,%ecx
    1034:	ba 02 00 00 00       	mov    $0x2,%edx
    1039:	89 c6                	mov    %eax,%esi
    103b:	8b 03                	mov    (%ebx),%eax
    103d:	c7 04 24 00 00 00 00 	movl   $0x0,(%esp)
    1044:	89 44 24 0c          	mov    %eax,0xc(%esp)
    1048:	8b 43 08             	mov    0x8(%ebx),%eax
    104b:	89 44 24 08          	mov    %eax,0x8(%esp)
    104f:	a1 8c 02 00 00       	mov    0x28c,%eax
    1054:	89 44 24 04          	mov    %eax,0x4(%esp)
    1058:	b8 05 00 00 00       	mov    $0x5,%eax
    105d:	e8 ce f3 ff ff       	call   430 <__fsm_core_self_drive>
    1062:	89 f2                	mov    %esi,%edx
    1064:	b8 b4 02 00 00       	mov    $0x2b4,%eax
    1069:	e8 fc ff ff ff       	call   106a <fsm_ioctrl_arrival+0x11a>
    106e:	e9 07 ff ff ff       	jmp    f7a <fsm_ioctrl_arrival+0x2a>
    1073:	90                   	nop
    1074:	8d 74 26 00          	lea    0x0(%esi,%eiz,1),%esi
    1078:	b8 b4 02 00 00       	mov    $0x2b4,%eax
    107d:	e8 fc ff ff ff       	call   107e <fsm_ioctrl_arrival+0x12e>
    1082:	31 c9                	xor    %ecx,%ecx
    1084:	ba 02 00 00 00       	mov    $0x2,%edx
    1089:	89 c6                	mov    %eax,%esi
    108b:	8b 45 e8             	mov    -0x18(%ebp),%eax
    108e:	c7 44 24 08 00 00 00 	movl   $0x0,0x8(%esp)
    1095:	00 
    1096:	c7 04 24 01 00 00 00 	movl   $0x1,(%esp)
    109d:	89 44 24 0c          	mov    %eax,0xc(%esp)
    10a1:	a1 8c 02 00 00       	mov    0x28c,%eax
    10a6:	89 44 24 04          	mov    %eax,0x4(%esp)
    10aa:	b8 05 00 00 00       	mov    $0x5,%eax
    10af:	e8 7c f3 ff ff       	call   430 <__fsm_core_self_drive>
    10b4:	89 f2                	mov    %esi,%edx
    10b6:	b8 b4 02 00 00       	mov    $0x2b4,%eax
    10bb:	e8 fc ff ff ff       	call   10bc <fsm_ioctrl_arrival+0x16c>
    10c0:	e9 4c ff ff ff       	jmp    1011 <fsm_ioctrl_arrival+0xc1>
    10c5:	8d 74 26 00          	lea    0x0(%esi,%eiz,1),%esi
    10c9:	8d bc 27 00 00 00 00 	lea    0x0(%edi,%eiz,1),%edi

000010d0 <fsm_get_curtime>:
    10d0:	55                   	push   %ebp
    10d1:	89 e5                	mov    %esp,%ebp
    10d3:	e8 fc ff ff ff       	call   10d4 <fsm_get_curtime+0x4>
    10d8:	e8 fc ff ff ff       	call   10d9 <fsm_get_curtime+0x9>
    10dd:	e8 fc ff ff ff       	call   10de <fsm_get_curtime+0xe>
    10e2:	b9 cd cc cc cc       	mov    $0xcccccccd,%ecx
    10e7:	5d                   	pop    %ebp
    10e8:	69 c0 40 42 0f 00    	imul   $0xf4240,%eax,%eax
    10ee:	01 c2                	add    %eax,%edx
    10f0:	89 d0                	mov    %edx,%eax
    10f2:	f7 e1                	mul    %ecx
    10f4:	c1 ea 03             	shr    $0x3,%edx
    10f7:	89 d0                	mov    %edx,%eax
    10f9:	c3                   	ret    
    10fa:	8d b6 00 00 00 00    	lea    0x0(%esi),%esi

00001100 <fsm_get_random_bytes>:
    1100:	55                   	push   %ebp
    1101:	89 e5                	mov    %esp,%ebp
    1103:	e8 fc ff ff ff       	call   1104 <fsm_get_random_bytes+0x4>
    1108:	e8 fc ff ff ff       	call   1109 <fsm_get_random_bytes+0x9>
    110d:	5d                   	pop    %ebp
    110e:	c3                   	ret    
    110f:	90                   	nop

00001110 <fsm_core_create>:
    1110:	55                   	push   %ebp
    1111:	89 e5                	mov    %esp,%ebp
    1113:	e8 fc ff ff ff       	call   1114 <fsm_core_create+0x4>
    1118:	c7 05 20 00 00 00 ff 	movl   $0xffffffff,0x20
    111f:	ff ff ff 
    1122:	c7 05 24 00 00 00 00 	movl   $0x0,0x24
    1129:	00 00 00 
    112c:	c7 05 28 00 00 00 00 	movl   $0x0,0x28
    1133:	00 00 00 
    1136:	c7 05 2c 00 00 00 00 	movl   $0x0,0x2c
    113d:	00 00 00 
    1140:	c7 05 30 00 00 00 00 	movl   $0x0,0x30
    1147:	00 00 00 
    114a:	a3 a8 02 00 00       	mov    %eax,0x2a8
    114f:	b8 44 00 00 00       	mov    $0x44,%eax
    1154:	c7 05 34 00 00 00 00 	movl   $0x0,0x34
    115b:	00 00 00 
    115e:	c7 05 38 00 00 00 00 	movl   $0x0,0x38
    1165:	00 00 00 
    1168:	c7 05 3c 00 00 00 00 	movl   $0x0,0x3c
    116f:	00 00 00 
    1172:	c7 05 40 00 00 00 00 	movl   $0x0,0x40
    1179:	00 00 00 
    117c:	c7 05 8c 02 00 00 ff 	movl   $0xffffffff,0x28c
    1183:	ff ff ff 
    1186:	66 90                	xchg   %ax,%ax
    1188:	c7 00 00 00 00 00    	movl   $0x0,(%eax)
    118e:	66 c7 40 04 00 00    	movw   $0x0,0x4(%eax)
    1194:	c7 40 08 00 00 00 00 	movl   $0x0,0x8(%eax)
    119b:	c7 40 0c 20 01 00 00 	movl   $0x120,0xc(%eax)
    11a2:	83 c0 10             	add    $0x10,%eax
    11a5:	3d 44 02 00 00       	cmp    $0x244,%eax
    11aa:	75 dc                	jne    1188 <fsm_core_create+0x78>
    11ac:	b8 10 00 00 00       	mov    $0x10,%eax
    11b1:	c7 05 90 02 00 00 00 	movl   $0x0,0x290
    11b8:	00 00 00 
    11bb:	c7 05 94 02 00 00 00 	movl   $0x0,0x294
    11c2:	00 00 00 
    11c5:	c7 05 98 02 00 00 00 	movl   $0x0,0x298
    11cc:	00 00 00 
    11cf:	c7 05 9c 02 00 00 00 	movl   $0x0,0x29c
    11d6:	00 00 00 
    11d9:	c7 05 a0 02 00 00 00 	movl   $0x0,0x2a0
    11e0:	00 00 00 
    11e3:	c7 05 a4 02 00 00 00 	movl   $0x0,0x2a4
    11ea:	00 00 00 
    11ed:	c7 05 ac 02 00 00 00 	movl   $0x0,0x2ac
    11f4:	00 00 00 
    11f7:	c7 05 b0 02 00 00 00 	movl   $0x0,0x2b0
    11fe:	00 00 00 
    1201:	66 c7 05 b4 02 00 00 	movw   $0x0,0x2b4
    1208:	00 00 
    120a:	e8 fc ff ff ff       	call   120b <fsm_core_create+0xfb>
    120f:	a3 b8 02 00 00       	mov    %eax,0x2b8
    1214:	b8 10 00 00 00       	mov    $0x10,%eax
    1219:	e8 fc ff ff ff       	call   121a <fsm_core_create+0x10a>
    121e:	a3 bc 02 00 00       	mov    %eax,0x2bc
    1223:	b8 14 00 00 00       	mov    $0x14,%eax
    1228:	e8 fc ff ff ff       	call   1229 <fsm_core_create+0x119>
    122d:	a3 c0 02 00 00       	mov    %eax,0x2c0
    1232:	b8 14 00 00 00       	mov    $0x14,%eax
    1237:	e8 fc ff ff ff       	call   1238 <fsm_core_create+0x128>
    123c:	a3 c4 02 00 00       	mov    %eax,0x2c4
    1241:	b8 14 00 00 00       	mov    $0x14,%eax
    1246:	e8 fc ff ff ff       	call   1247 <fsm_core_create+0x137>
    124b:	a3 c8 02 00 00       	mov    %eax,0x2c8
    1250:	b8 14 00 00 00       	mov    $0x14,%eax
    1255:	e8 fc ff ff ff       	call   1256 <fsm_core_create+0x146>
    125a:	5d                   	pop    %ebp
    125b:	a3 cc 02 00 00       	mov    %eax,0x2cc
    1260:	c3                   	ret    
    1261:	eb 0d                	jmp    1270 <fsm_core_intf_set>
    1263:	90                   	nop
    1264:	90                   	nop
    1265:	90                   	nop
    1266:	90                   	nop
    1267:	90                   	nop
    1268:	90                   	nop
    1269:	90                   	nop
    126a:	90                   	nop
    126b:	90                   	nop
    126c:	90                   	nop
    126d:	90                   	nop
    126e:	90                   	nop
    126f:	90                   	nop

00001270 <fsm_core_intf_set>:
    1270:	55                   	push   %ebp
    1271:	89 e5                	mov    %esp,%ebp
    1273:	83 ec 10             	sub    $0x10,%esp
    1276:	89 5d f4             	mov    %ebx,-0xc(%ebp)
    1279:	89 75 f8             	mov    %esi,-0x8(%ebp)
    127c:	89 7d fc             	mov    %edi,-0x4(%ebp)
    127f:	e8 fc ff ff ff       	call   1280 <fsm_core_intf_set+0x10>
    1284:	8b 7d 08             	mov    0x8(%ebp),%edi
    1287:	83 fa 01             	cmp    $0x1,%edx
    128a:	89 c3                	mov    %eax,%ebx
    128c:	89 ce                	mov    %ecx,%esi
    128e:	0f 84 bc 00 00 00    	je     1350 <fsm_core_intf_set+0xe0>
    1294:	72 3a                	jb     12d0 <fsm_core_intf_set+0x60>
    1296:	83 fa 02             	cmp    $0x2,%edx
    1299:	74 55                	je     12f0 <fsm_core_intf_set+0x80>
    129b:	85 ff                	test   %edi,%edi
    129d:	8d 76 00             	lea    0x0(%esi),%esi
    12a0:	75 1c                	jne    12be <fsm_core_intf_set+0x4e>
    12a2:	66 85 f6             	test   %si,%si
    12a5:	75 17                	jne    12be <fsm_core_intf_set+0x4e>
    12a7:	c1 e3 04             	shl    $0x4,%ebx
    12aa:	c7 83 44 00 00 00 00 	movl   $0x0,0x44(%ebx)
    12b1:	00 00 00 
    12b4:	c7 83 50 00 00 00 20 	movl   $0x120,0x50(%ebx)
    12bb:	01 00 00 
    12be:	8b 5d f4             	mov    -0xc(%ebp),%ebx
    12c1:	8b 75 f8             	mov    -0x8(%ebp),%esi
    12c4:	8b 7d fc             	mov    -0x4(%ebp),%edi
    12c7:	89 ec                	mov    %ebp,%esp
    12c9:	5d                   	pop    %ebp
    12ca:	c3                   	ret    
    12cb:	90                   	nop
    12cc:	8d 74 26 00          	lea    0x0(%esi,%eiz,1),%esi
    12d0:	c1 e0 04             	shl    $0x4,%eax
    12d3:	c7 80 44 00 00 00 00 	movl   $0x0,0x44(%eax)
    12da:	00 00 00 
    12dd:	c7 80 50 00 00 00 20 	movl   $0x120,0x50(%eax)
    12e4:	01 00 00 
    12e7:	eb b2                	jmp    129b <fsm_core_intf_set+0x2b>
    12e9:	8d b4 26 00 00 00 00 	lea    0x0(%esi,%eiz,1),%esi
    12f0:	85 ff                	test   %edi,%edi
    12f2:	0f 84 b8 00 00 00    	je     13b0 <fsm_core_intf_set+0x140>
    12f8:	a1 a8 02 00 00       	mov    0x2a8,%eax
    12fd:	89 fa                	mov    %edi,%edx
    12ff:	8b 80 c0 02 00 00    	mov    0x2c0(%eax),%eax
    1305:	e8 fc ff ff ff       	call   1306 <fsm_core_intf_set+0x96>
    130a:	8d 53 02             	lea    0x2(%ebx),%edx
    130d:	89 d1                	mov    %edx,%ecx
    130f:	c1 e1 04             	shl    $0x4,%ecx
    1312:	c7 81 24 00 00 00 02 	movl   $0x2,0x24(%ecx)
    1319:	00 00 00 
    131c:	0f b7 ce             	movzwl %si,%ecx
    131f:	c1 e1 08             	shl    $0x8,%ecx
    1322:	89 4d f0             	mov    %ecx,-0x10(%ebp)
    1325:	89 f1                	mov    %esi,%ecx
    1327:	66 c1 e9 08          	shr    $0x8,%cx
    132b:	66 0b 4d f0          	or     -0x10(%ebp),%cx
    132f:	c1 e2 04             	shl    $0x4,%edx
    1332:	89 82 2c 00 00 00    	mov    %eax,0x2c(%edx)
    1338:	66 89 8a 28 00 00 00 	mov    %cx,0x28(%edx)
    133f:	c7 82 30 00 00 00 30 	movl   $0x230,0x30(%edx)
    1346:	02 00 00 
    1349:	e9 4d ff ff ff       	jmp    129b <fsm_core_intf_set+0x2b>
    134e:	66 90                	xchg   %ax,%ax
    1350:	85 ff                	test   %edi,%edi
    1352:	74 7c                	je     13d0 <fsm_core_intf_set+0x160>
    1354:	a1 a8 02 00 00       	mov    0x2a8,%eax
    1359:	89 fa                	mov    %edi,%edx
    135b:	8b 80 c0 02 00 00    	mov    0x2c0(%eax),%eax
    1361:	e8 fc ff ff ff       	call   1362 <fsm_core_intf_set+0xf2>
    1366:	8d 53 02             	lea    0x2(%ebx),%edx
    1369:	89 d1                	mov    %edx,%ecx
    136b:	c1 e1 04             	shl    $0x4,%ecx
    136e:	c7 81 24 00 00 00 01 	movl   $0x1,0x24(%ecx)
    1375:	00 00 00 
    1378:	0f b7 ce             	movzwl %si,%ecx
    137b:	c1 e1 08             	shl    $0x8,%ecx
    137e:	89 4d f0             	mov    %ecx,-0x10(%ebp)
    1381:	89 f1                	mov    %esi,%ecx
    1383:	66 c1 e9 08          	shr    $0x8,%cx
    1387:	66 0b 4d f0          	or     -0x10(%ebp),%cx
    138b:	c1 e2 04             	shl    $0x4,%edx
    138e:	89 82 2c 00 00 00    	mov    %eax,0x2c(%edx)
    1394:	66 89 8a 28 00 00 00 	mov    %cx,0x28(%edx)
    139b:	c7 82 30 00 00 00 d0 	movl   $0x1d0,0x30(%edx)
    13a2:	01 00 00 
    13a5:	e9 f1 fe ff ff       	jmp    129b <fsm_core_intf_set+0x2b>
    13aa:	8d b6 00 00 00 00    	lea    0x0(%esi),%esi
    13b0:	8d 50 02             	lea    0x2(%eax),%edx
    13b3:	0f b7 c9             	movzwl %cx,%ecx
    13b6:	89 d0                	mov    %edx,%eax
    13b8:	c1 e0 04             	shl    $0x4,%eax
    13bb:	c7 80 24 00 00 00 02 	movl   $0x2,0x24(%eax)
    13c2:	00 00 00 
    13c5:	31 c0                	xor    %eax,%eax
    13c7:	e9 53 ff ff ff       	jmp    131f <fsm_core_intf_set+0xaf>
    13cc:	8d 74 26 00          	lea    0x0(%esi,%eiz,1),%esi
    13d0:	8d 50 02             	lea    0x2(%eax),%edx
    13d3:	0f b7 c9             	movzwl %cx,%ecx
    13d6:	89 d0                	mov    %edx,%eax
    13d8:	c1 e0 04             	shl    $0x4,%eax
    13db:	c7 80 24 00 00 00 01 	movl   $0x1,0x24(%eax)
    13e2:	00 00 00 
    13e5:	31 c0                	xor    %eax,%eax
    13e7:	eb 92                	jmp    137b <fsm_core_intf_set+0x10b>
    13e9:	8d b4 26 00 00 00 00 	lea    0x0(%esi,%eiz,1),%esi

000013f0 <fsm_core_open>:
    13f0:	55                   	push   %ebp
    13f1:	89 e5                	mov    %esp,%ebp
    13f3:	53                   	push   %ebx
    13f4:	83 ec 10             	sub    $0x10,%esp
    13f7:	e8 fc ff ff ff       	call   13f8 <fsm_core_open+0x8>
    13fc:	a1 28 00 00 00       	mov    0x28,%eax
    1401:	85 c0                	test   %eax,%eax
    1403:	0f 85 54 01 00 00    	jne    155d <fsm_core_open+0x16d>
    1409:	c7 04 24 12 00 00 00 	movl   $0x12,(%esp)
    1410:	e8 fc ff ff ff       	call   1411 <fsm_core_open+0x21>
    1415:	b8 b4 02 00 00       	mov    $0x2b4,%eax
    141a:	e8 fc ff ff ff       	call   141b <fsm_core_open+0x2b>
    141f:	31 c9                	xor    %ecx,%ecx
    1421:	ba 50 00 00 00       	mov    $0x50,%edx
    1426:	89 c3                	mov    %eax,%ebx
    1428:	a1 b8 02 00 00       	mov    0x2b8,%eax
 * network layer or drivers should need annotation to consolidate the
 * main types of usage into 3 classes.
 */
static inline void skb_queue_head_init(struct sk_buff_head *list)
{
	spin_lock_init(&list->lock);
    142d:	66 c7 40 0c 00 00    	movw   $0x0,0xc(%eax)
 *	the spinlock.  It can also be used for on-stack sk_buff_head
 *	objects where the spinlock is known to not be used.
 */
static inline void __skb_queue_head_init(struct sk_buff_head *list)
{
	list->prev = list->next = (struct sk_buff *)list;
    1433:	89 00                	mov    %eax,(%eax)
    1435:	89 40 04             	mov    %eax,0x4(%eax)
	list->qlen = 0;
    1438:	c7 40 08 00 00 00 00 	movl   $0x0,0x8(%eax)
    143f:	a1 bc 02 00 00       	mov    0x2bc,%eax
 * network layer or drivers should need annotation to consolidate the
 * main types of usage into 3 classes.
 */
static inline void skb_queue_head_init(struct sk_buff_head *list)
{
	spin_lock_init(&list->lock);
    1444:	66 c7 40 0c 00 00    	movw   $0x0,0xc(%eax)
 *	the spinlock.  It can also be used for on-stack sk_buff_head
 *	objects where the spinlock is known to not be used.
 */
static inline void __skb_queue_head_init(struct sk_buff_head *list)
{
	list->prev = list->next = (struct sk_buff *)list;
    144a:	89 00                	mov    %eax,(%eax)
    144c:	89 40 04             	mov    %eax,0x4(%eax)
	list->qlen = 0;
    144f:	c7 40 08 00 00 00 00 	movl   $0x0,0x8(%eax)
    1456:	a1 c0 02 00 00       	mov    0x2c0,%eax
    145b:	66 c7 05 d0 02 00 00 	movw   $0x0,0x2d0
    1462:	00 00 
    1464:	66 c7 05 d2 02 00 00 	movw   $0x0,0x2d2
    146b:	00 00 
    146d:	e8 fc ff ff ff       	call   146e <fsm_core_open+0x7e>
    1472:	a1 c4 02 00 00       	mov    0x2c4,%eax
    1477:	31 c9                	xor    %ecx,%ecx
    1479:	ba 00 00 00 00       	mov    $0x0,%edx
    147e:	e8 fc ff ff ff       	call   147f <fsm_core_open+0x8f>
    1483:	a1 c8 02 00 00       	mov    0x2c8,%eax
    1488:	31 c9                	xor    %ecx,%ecx
    148a:	ba a0 00 00 00       	mov    $0xa0,%edx
    148f:	66 c7 05 e4 02 00 00 	movw   $0x0,0x2e4
    1496:	00 00 
#define LIST_HEAD(name) \
	struct list_head name = LIST_HEAD_INIT(name)

static inline void INIT_LIST_HEAD(struct list_head *list)
{
	list->next = list;
    1498:	c7 05 d4 02 00 00 d4 	movl   $0x2d4,0x2d4
    149f:	02 00 00 
	list->prev = list;
    14a2:	c7 05 d8 02 00 00 d4 	movl   $0x2d4,0x2d8
    14a9:	02 00 00 
    14ac:	e8 fc ff ff ff       	call   14ad <fsm_core_open+0xbd>
    14b1:	a1 cc 02 00 00       	mov    0x2cc,%eax
    14b6:	31 c9                	xor    %ecx,%ecx
    14b8:	ba 10 09 00 00       	mov    $0x910,%edx
    14bd:	66 c7 05 e6 02 00 00 	movw   $0x0,0x2e6
    14c4:	00 00 
#define LIST_HEAD(name) \
	struct list_head name = LIST_HEAD_INIT(name)

static inline void INIT_LIST_HEAD(struct list_head *list)
{
	list->next = list;
    14c6:	c7 05 dc 02 00 00 dc 	movl   $0x2dc,0x2dc
    14cd:	02 00 00 
	list->prev = list;
    14d0:	c7 05 e0 02 00 00 dc 	movl   $0x2dc,0x2e0
    14d7:	02 00 00 
    14da:	e8 fc ff ff ff       	call   14db <fsm_core_open+0xeb>
    14df:	31 c9                	xor    %ecx,%ecx
    14e1:	ba 01 00 00 00       	mov    $0x1,%edx
    14e6:	b8 48 02 00 00       	mov    $0x248,%eax
    14eb:	66 c7 05 e8 02 00 00 	movw   $0x0,0x2e8
    14f2:	00 00 
    14f4:	c7 05 44 02 00 00 00 	movl   $0x0,0x244
    14fb:	00 00 00 
    14fe:	c7 05 88 02 00 00 00 	movl   $0x0,0x288
    1505:	00 00 00 
    1508:	e8 fc ff ff ff       	call   1509 <fsm_core_open+0x119>
    150d:	a1 8c 02 00 00       	mov    0x28c,%eax
    1512:	31 c9                	xor    %ecx,%ecx
    1514:	31 d2                	xor    %edx,%edx
    1516:	c7 05 28 00 00 00 01 	movl   $0x1,0x28
    151d:	00 00 00 
    1520:	89 44 24 04          	mov    %eax,0x4(%esp)
    1524:	b8 05 00 00 00       	mov    $0x5,%eax
    1529:	c7 44 24 0c 00 00 00 	movl   $0x0,0xc(%esp)
    1530:	00 
    1531:	c7 44 24 08 00 00 00 	movl   $0x0,0x8(%esp)
    1538:	00 
    1539:	c7 04 24 00 00 00 00 	movl   $0x0,(%esp)
    1540:	e8 eb ee ff ff       	call   430 <__fsm_core_self_drive>
    1545:	89 da                	mov    %ebx,%edx
    1547:	b8 b4 02 00 00       	mov    $0x2b4,%eax
    154c:	e8 fc ff ff ff       	call   154d <fsm_core_open+0x15d>
    1551:	c7 04 24 24 00 00 00 	movl   $0x24,(%esp)
    1558:	e8 fc ff ff ff       	call   1559 <fsm_core_open+0x169>
    155d:	83 c4 10             	add    $0x10,%esp
    1560:	31 c0                	xor    %eax,%eax
    1562:	5b                   	pop    %ebx
    1563:	5d                   	pop    %ebp
    1564:	c3                   	ret    
    1565:	8d 74 26 00          	lea    0x0(%esi,%eiz,1),%esi
    1569:	8d bc 27 00 00 00 00 	lea    0x0(%edi,%eiz,1),%edi

00001570 <fsm_core_close>:
    1570:	55                   	push   %ebp
    1571:	89 e5                	mov    %esp,%ebp
    1573:	57                   	push   %edi
    1574:	56                   	push   %esi
    1575:	53                   	push   %ebx
    1576:	83 ec 10             	sub    $0x10,%esp
    1579:	e8 fc ff ff ff       	call   157a <fsm_core_close+0xa>
    157e:	a1 28 00 00 00       	mov    0x28,%eax
    1583:	85 c0                	test   %eax,%eax
    1585:	75 11                	jne    1598 <fsm_core_close+0x28>
    1587:	83 c4 10             	add    $0x10,%esp
    158a:	31 c0                	xor    %eax,%eax
    158c:	5b                   	pop    %ebx
    158d:	5e                   	pop    %esi
    158e:	5f                   	pop    %edi
    158f:	5d                   	pop    %ebp
    1590:	c3                   	ret    
    1591:	8d b4 26 00 00 00 00 	lea    0x0(%esi,%eiz,1),%esi
    1598:	b8 b4 02 00 00       	mov    $0x2b4,%eax
    159d:	e8 fc ff ff ff       	call   159e <fsm_core_close+0x2e>
    15a2:	89 c7                	mov    %eax,%edi
    15a4:	c7 04 24 36 00 00 00 	movl   $0x36,(%esp)
    15ab:	e8 fc ff ff ff       	call   15ac <fsm_core_close+0x3c>
    15b0:	a1 8c 02 00 00       	mov    0x28c,%eax
    15b5:	31 c9                	xor    %ecx,%ecx
    15b7:	ba 01 00 00 00       	mov    $0x1,%edx
    15bc:	89 44 24 04          	mov    %eax,0x4(%esp)
    15c0:	b8 05 00 00 00       	mov    $0x5,%eax
    15c5:	c7 44 24 0c 00 00 00 	movl   $0x0,0xc(%esp)
    15cc:	00 
    15cd:	c7 44 24 08 00 00 00 	movl   $0x0,0x8(%esp)
    15d4:	00 
    15d5:	c7 04 24 00 00 00 00 	movl   $0x0,(%esp)
    15dc:	e8 4f ee ff ff       	call   430 <__fsm_core_self_drive>
    15e1:	b8 48 02 00 00       	mov    $0x248,%eax
    15e6:	c7 05 44 02 00 00 00 	movl   $0x0,0x244
    15ed:	00 00 00 
    15f0:	e8 fc ff ff ff       	call   15f1 <fsm_core_close+0x81>
    15f5:	b8 e8 02 00 00       	mov    $0x2e8,%eax
    15fa:	e8 fc ff ff ff       	call   15fb <fsm_core_close+0x8b>
    15ff:	89 c3                	mov    %eax,%ebx
    1601:	a1 88 02 00 00       	mov    0x288,%eax
    1606:	85 c0                	test   %eax,%eax
    1608:	74 1c                	je     1626 <fsm_core_close+0xb6>
    160a:	8d b6 00 00 00 00    	lea    0x0(%esi),%esi
    1610:	8b 10                	mov    (%eax),%edx
    1612:	89 15 88 02 00 00    	mov    %edx,0x288
    1618:	e8 fc ff ff ff       	call   1619 <fsm_core_close+0xa9>
    161d:	a1 88 02 00 00       	mov    0x288,%eax
    1622:	85 c0                	test   %eax,%eax
    1624:	75 ea                	jne    1610 <fsm_core_close+0xa0>
    1626:	89 da                	mov    %ebx,%edx
    1628:	b8 e8 02 00 00       	mov    $0x2e8,%eax
    162d:	e8 fc ff ff ff       	call   162e <fsm_core_close+0xbe>
    1632:	a1 c0 02 00 00       	mov    0x2c0,%eax
    1637:	e8 fc ff ff ff       	call   1638 <fsm_core_close+0xc8>
    163c:	a1 c4 02 00 00       	mov    0x2c4,%eax
    1641:	e8 fc ff ff ff       	call   1642 <fsm_core_close+0xd2>
    1646:	a1 c8 02 00 00       	mov    0x2c8,%eax
    164b:	e8 fc ff ff ff       	call   164c <fsm_core_close+0xdc>
    1650:	a1 cc 02 00 00       	mov    0x2cc,%eax
    1655:	e8 fc ff ff ff       	call   1656 <fsm_core_close+0xe6>
    165a:	a1 b8 02 00 00       	mov    0x2b8,%eax
    165f:	3b 00                	cmp    (%eax),%eax
    1661:	74 2f                	je     1692 <fsm_core_close+0x122>
    1663:	90                   	nop
    1664:	8d 74 26 00          	lea    0x0(%esi,%eiz,1),%esi
    1668:	e8 fc ff ff ff       	call   1669 <fsm_core_close+0xf9>
    166d:	e8 fc ff ff ff       	call   166e <fsm_core_close+0xfe>
    1672:	a1 b8 02 00 00       	mov    0x2b8,%eax
    1677:	3b 00                	cmp    (%eax),%eax
    1679:	75 ed                	jne    1668 <fsm_core_close+0xf8>
    167b:	a1 bc 02 00 00       	mov    0x2bc,%eax
    1680:	3b 00                	cmp    (%eax),%eax
    1682:	74 17                	je     169b <fsm_core_close+0x12b>
    1684:	8d 74 26 00          	lea    0x0(%esi,%eiz,1),%esi
    1688:	e8 fc ff ff ff       	call   1689 <fsm_core_close+0x119>
    168d:	e8 fc ff ff ff       	call   168e <fsm_core_close+0x11e>
    1692:	a1 bc 02 00 00       	mov    0x2bc,%eax
    1697:	3b 00                	cmp    (%eax),%eax
    1699:	75 ed                	jne    1688 <fsm_core_close+0x118>
 * list_empty - tests whether a list is empty
 * @head: the list to test.
 */
static inline int list_empty(const struct list_head *head)
{
	return head->next == head;
    169b:	8b 1d d4 02 00 00    	mov    0x2d4,%ebx
    16a1:	81 fb d4 02 00 00    	cmp    $0x2d4,%ebx
    16a7:	74 6b                	je     1714 <fsm_core_close+0x1a4>
    16a9:	8b 33                	mov    (%ebx),%esi
    16ab:	83 eb 10             	sub    $0x10,%ebx
    16ae:	83 ee 10             	sub    $0x10,%esi
    16b1:	eb 17                	jmp    16ca <fsm_core_close+0x15a>
    16b3:	90                   	nop
    16b4:	8d 74 26 00          	lea    0x0(%esi,%eiz,1),%esi
    16b8:	8b 46 10             	mov    0x10(%esi),%eax
    16bb:	83 e8 10             	sub    $0x10,%eax
    16be:	81 fe c4 02 00 00    	cmp    $0x2c4,%esi
    16c4:	74 4e                	je     1714 <fsm_core_close+0x1a4>
    16c6:	89 f3                	mov    %esi,%ebx
    16c8:	89 c6                	mov    %eax,%esi
    16ca:	b8 e4 02 00 00       	mov    $0x2e4,%eax
    16cf:	e8 fc ff ff ff       	call   16d0 <fsm_core_close+0x160>
	__list_del(entry->prev, entry->next);
}

static inline void list_del(struct list_head *entry)
{
	__list_del(entry->prev, entry->next);
    16d4:	8b 4b 14             	mov    0x14(%ebx),%ecx
    16d7:	89 c2                	mov    %eax,%edx
    16d9:	8b 43 10             	mov    0x10(%ebx),%eax
 * This is only for internal list manipulation where we know
 * the prev/next entries already!
 */
static inline void __list_del(struct list_head * prev, struct list_head * next)
{
	next->prev = prev;
    16dc:	89 48 04             	mov    %ecx,0x4(%eax)
	prev->next = next;
    16df:	89 01                	mov    %eax,(%ecx)
    16e1:	b8 e4 02 00 00       	mov    $0x2e4,%eax
}

static inline void list_del(struct list_head *entry)
{
	__list_del(entry->prev, entry->next);
	entry->next = LIST_POISON1;
    16e6:	c7 43 10 00 01 10 00 	movl   $0x100100,0x10(%ebx)
	entry->prev = LIST_POISON2;
    16ed:	c7 43 14 00 02 20 00 	movl   $0x200200,0x14(%ebx)
    16f4:	e8 fc ff ff ff       	call   16f5 <fsm_core_close+0x185>
    16f9:	8b 43 0c             	mov    0xc(%ebx),%eax
    16fc:	e8 fc ff ff ff       	call   16fd <fsm_core_close+0x18d>
    1701:	89 d8                	mov    %ebx,%eax
    1703:	e8 fc ff ff ff       	call   1704 <fsm_core_close+0x194>
    1708:	81 3d d4 02 00 00 d4 	cmpl   $0x2d4,0x2d4
    170f:	02 00 00 
    1712:	75 a4                	jne    16b8 <fsm_core_close+0x148>
 * list_empty - tests whether a list is empty
 * @head: the list to test.
 */
static inline int list_empty(const struct list_head *head)
{
	return head->next == head;
    1714:	8b 1d dc 02 00 00    	mov    0x2dc,%ebx
    171a:	81 fb dc 02 00 00    	cmp    $0x2dc,%ebx
    1720:	74 69                	je     178b <fsm_core_close+0x21b>
    1722:	8b 33                	mov    (%ebx),%esi
    1724:	83 eb 04             	sub    $0x4,%ebx
    1727:	83 ee 04             	sub    $0x4,%esi
    172a:	eb 16                	jmp    1742 <fsm_core_close+0x1d2>
    172c:	8d 74 26 00          	lea    0x0(%esi,%eiz,1),%esi
    1730:	8b 46 04             	mov    0x4(%esi),%eax
    1733:	83 e8 04             	sub    $0x4,%eax
    1736:	81 fe d8 02 00 00    	cmp    $0x2d8,%esi
    173c:	74 4d                	je     178b <fsm_core_close+0x21b>
    173e:	89 f3                	mov    %esi,%ebx
    1740:	89 c6                	mov    %eax,%esi
    1742:	b8 e6 02 00 00       	mov    $0x2e6,%eax
    1747:	e8 fc ff ff ff       	call   1748 <fsm_core_close+0x1d8>
	__list_del(entry->prev, entry->next);
}

static inline void list_del(struct list_head *entry)
{
	__list_del(entry->prev, entry->next);
    174c:	8b 4b 08             	mov    0x8(%ebx),%ecx
    174f:	89 c2                	mov    %eax,%edx
    1751:	8b 43 04             	mov    0x4(%ebx),%eax
 * This is only for internal list manipulation where we know
 * the prev/next entries already!
 */
static inline void __list_del(struct list_head * prev, struct list_head * next)
{
	next->prev = prev;
    1754:	89 48 04             	mov    %ecx,0x4(%eax)
	prev->next = next;
    1757:	89 01                	mov    %eax,(%ecx)
    1759:	b8 e6 02 00 00       	mov    $0x2e6,%eax
}

static inline void list_del(struct list_head *entry)
{
	__list_del(entry->prev, entry->next);
	entry->next = LIST_POISON1;
    175e:	c7 43 04 00 01 10 00 	movl   $0x100100,0x4(%ebx)
	entry->prev = LIST_POISON2;
    1765:	c7 43 08 00 02 20 00 	movl   $0x200200,0x8(%ebx)
    176c:	e8 fc ff ff ff       	call   176d <fsm_core_close+0x1fd>
    1771:	8b 03                	mov    (%ebx),%eax
    1773:	e8 fc ff ff ff       	call   1774 <fsm_core_close+0x204>
    1778:	89 d8                	mov    %ebx,%eax
    177a:	e8 fc ff ff ff       	call   177b <fsm_core_close+0x20b>
    177f:	81 3d dc 02 00 00 dc 	cmpl   $0x2dc,0x2dc
    1786:	02 00 00 
    1789:	75 a5                	jne    1730 <fsm_core_close+0x1c0>
    178b:	c7 05 28 00 00 00 00 	movl   $0x0,0x28
    1792:	00 00 00 
    1795:	b8 4c 00 00 00       	mov    $0x4c,%eax
    179a:	8d b6 00 00 00 00    	lea    0x0(%esi),%esi
    17a0:	8b 10                	mov    (%eax),%edx
    17a2:	85 d2                	test   %edx,%edx
    17a4:	74 09                	je     17af <fsm_core_close+0x23f>
    17a6:	8b 92 98 02 00 00    	mov    0x298(%edx),%edx
 *
 * Release reference to device to allow it to be freed.
 */
static inline void dev_put(struct net_device *dev)
{
	this_cpu_dec(*dev->pcpu_refcnt);
    17ac:	64 ff 0a             	decl   %fs:(%edx)
    17af:	83 c0 10             	add    $0x10,%eax
    17b2:	3d 4c 02 00 00       	cmp    $0x24c,%eax
    17b7:	75 e7                	jne    17a0 <fsm_core_close+0x230>
    17b9:	b8 44 00 00 00       	mov    $0x44,%eax
    17be:	66 90                	xchg   %ax,%ax
    17c0:	c7 00 00 00 00 00    	movl   $0x0,(%eax)
    17c6:	66 c7 40 04 00 00    	movw   $0x0,0x4(%eax)
    17cc:	c7 40 08 00 00 00 00 	movl   $0x0,0x8(%eax)
    17d3:	c7 40 0c 20 01 00 00 	movl   $0x120,0xc(%eax)
    17da:	83 c0 10             	add    $0x10,%eax
    17dd:	3d 44 02 00 00       	cmp    $0x244,%eax
    17e2:	75 dc                	jne    17c0 <fsm_core_close+0x250>
    17e4:	c7 04 24 48 00 00 00 	movl   $0x48,(%esp)
    17eb:	e8 fc ff ff ff       	call   17ec <fsm_core_close+0x27c>
    17f0:	89 fa                	mov    %edi,%edx
    17f2:	b8 b4 02 00 00       	mov    $0x2b4,%eax
    17f7:	e8 fc ff ff ff       	call   17f8 <fsm_core_close+0x288>
    17fc:	31 c0                	xor    %eax,%eax
    17fe:	83 c4 10             	add    $0x10,%esp
    1801:	5b                   	pop    %ebx
    1802:	5e                   	pop    %esi
    1803:	5f                   	pop    %edi
    1804:	5d                   	pop    %ebp
    1805:	c3                   	ret    
    1806:	8d 76 00             	lea    0x0(%esi),%esi
    1809:	8d bc 27 00 00 00 00 	lea    0x0(%edi,%eiz,1),%edi

00001810 <fsm_core_pkt_drive>:
    1810:	55                   	push   %ebp
    1811:	89 e5                	mov    %esp,%ebp
    1813:	83 ec 18             	sub    $0x18,%esp
    1816:	89 5d f8             	mov    %ebx,-0x8(%ebp)
    1819:	89 75 fc             	mov    %esi,-0x4(%ebp)
    181c:	e8 fc ff ff ff       	call   181d <fsm_core_pkt_drive+0xd>
    1821:	83 fa 01             	cmp    $0x1,%edx
    1824:	89 c6                	mov    %eax,%esi
    1826:	74 68                	je     1890 <fsm_core_pkt_drive+0x80>
    1828:	85 d2                	test   %edx,%edx
    182a:	74 0c                	je     1838 <fsm_core_pkt_drive+0x28>
    182c:	8b 5d f8             	mov    -0x8(%ebp),%ebx
    182f:	31 c0                	xor    %eax,%eax
    1831:	8b 75 fc             	mov    -0x4(%ebp),%esi
    1834:	89 ec                	mov    %ebp,%esp
    1836:	5d                   	pop    %ebp
    1837:	c3                   	ret    
    1838:	b8 b4 02 00 00       	mov    $0x2b4,%eax
    183d:	e8 fc ff ff ff       	call   183e <fsm_core_pkt_drive+0x2e>
    1842:	89 f1                	mov    %esi,%ecx
    1844:	31 d2                	xor    %edx,%edx
    1846:	89 c3                	mov    %eax,%ebx
    1848:	a1 8c 02 00 00       	mov    0x28c,%eax
    184d:	c7 44 24 0c 00 00 00 	movl   $0x0,0xc(%esp)
    1854:	00 
    1855:	c7 44 24 08 00 00 00 	movl   $0x0,0x8(%esp)
    185c:	00 
    185d:	c7 04 24 00 00 00 00 	movl   $0x0,(%esp)
    1864:	89 44 24 04          	mov    %eax,0x4(%esp)
    1868:	b8 01 00 00 00       	mov    $0x1,%eax
    186d:	e8 be eb ff ff       	call   430 <__fsm_core_self_drive>
    1872:	89 da                	mov    %ebx,%edx
    1874:	b8 b4 02 00 00       	mov    $0x2b4,%eax
    1879:	e8 fc ff ff ff       	call   187a <fsm_core_pkt_drive+0x6a>
    187e:	8b 5d f8             	mov    -0x8(%ebp),%ebx
    1881:	31 c0                	xor    %eax,%eax
    1883:	8b 75 fc             	mov    -0x4(%ebp),%esi
    1886:	89 ec                	mov    %ebp,%esp
    1888:	5d                   	pop    %ebp
    1889:	c3                   	ret    
    188a:	8d b6 00 00 00 00    	lea    0x0(%esi),%esi
    1890:	b8 b4 02 00 00       	mov    $0x2b4,%eax
    1895:	e8 fc ff ff ff       	call   1896 <fsm_core_pkt_drive+0x86>
    189a:	89 f1                	mov    %esi,%ecx
    189c:	31 d2                	xor    %edx,%edx
    189e:	89 c3                	mov    %eax,%ebx
    18a0:	a1 8c 02 00 00       	mov    0x28c,%eax
    18a5:	c7 44 24 0c 00 00 00 	movl   $0x0,0xc(%esp)
    18ac:	00 
    18ad:	c7 44 24 08 00 00 00 	movl   $0x0,0x8(%esp)
    18b4:	00 
    18b5:	c7 04 24 00 00 00 00 	movl   $0x0,(%esp)
    18bc:	89 44 24 04          	mov    %eax,0x4(%esp)
    18c0:	b8 02 00 00 00       	mov    $0x2,%eax
    18c5:	e8 66 eb ff ff       	call   430 <__fsm_core_self_drive>
    18ca:	89 da                	mov    %ebx,%edx
    18cc:	b8 b4 02 00 00       	mov    $0x2b4,%eax
    18d1:	e8 fc ff ff ff       	call   18d2 <fsm_core_pkt_drive+0xc2>
    18d6:	8b 5d f8             	mov    -0x8(%ebp),%ebx
    18d9:	31 c0                	xor    %eax,%eax
    18db:	8b 75 fc             	mov    -0x4(%ebp),%esi
    18de:	89 ec                	mov    %ebp,%esp
    18e0:	5d                   	pop    %ebp
    18e1:	c3                   	ret    
    18e2:	8d b4 26 00 00 00 00 	lea    0x0(%esi,%eiz,1),%esi
    18e9:	8d bc 27 00 00 00 00 	lea    0x0(%edi,%eiz,1),%edi

000018f0 <fsm_create_register>:
    18f0:	55                   	push   %ebp
    18f1:	89 e5                	mov    %esp,%ebp
    18f3:	83 ec 14             	sub    $0x14,%esp
    18f6:	89 5d f4             	mov    %ebx,-0xc(%ebp)
    18f9:	89 75 f8             	mov    %esi,-0x8(%ebp)
    18fc:	89 7d fc             	mov    %edi,-0x4(%ebp)
    18ff:	e8 fc ff ff ff       	call   1900 <fsm_create_register+0x10>
    1904:	31 db                	xor    %ebx,%ebx
    1906:	89 c7                	mov    %eax,%edi
    1908:	8b 04 9d 90 02 00 00 	mov    0x290(,%ebx,4),%eax
    190f:	85 c0                	test   %eax,%eax
    1911:	74 1d                	je     1930 <fsm_create_register+0x40>
    1913:	83 c3 01             	add    $0x1,%ebx
    1916:	83 fb 06             	cmp    $0x6,%ebx
    1919:	75 ed                	jne    1908 <fsm_create_register+0x18>
    191b:	bb ff ff ff ff       	mov    $0xffffffff,%ebx
    1920:	8b 75 f8             	mov    -0x8(%ebp),%esi
    1923:	89 d8                	mov    %ebx,%eax
    1925:	8b 7d fc             	mov    -0x4(%ebp),%edi
    1928:	8b 5d f4             	mov    -0xc(%ebp),%ebx
    192b:	89 ec                	mov    %ebp,%esp
    192d:	5d                   	pop    %ebp
    192e:	c3                   	ret    
    192f:	90                   	nop
    1930:	b8 90 00 00 00       	mov    $0x90,%eax
    1935:	89 4d f0             	mov    %ecx,-0x10(%ebp)
    1938:	8d b3 9c 00 00 00    	lea    0x9c(%ebx),%esi
    193e:	89 55 ec             	mov    %edx,-0x14(%ebp)
    1941:	e8 fc ff ff ff       	call   1942 <fsm_create_register+0x52>
    1946:	8b 55 ec             	mov    -0x14(%ebp),%edx
    1949:	89 04 b5 20 00 00 00 	mov    %eax,0x20(,%esi,4)
    1950:	89 90 84 00 00 00    	mov    %edx,0x84(%eax)
    1956:	8b 04 b5 20 00 00 00 	mov    0x20(,%esi,4),%eax
    195d:	89 fa                	mov    %edi,%edx
    195f:	89 98 80 00 00 00    	mov    %ebx,0x80(%eax)
    1965:	8b 04 b5 20 00 00 00 	mov    0x20(,%esi,4),%eax
    196c:	e8 fc ff ff ff       	call   196d <fsm_create_register+0x7d>
    1971:	8b 04 b5 20 00 00 00 	mov    0x20(,%esi,4),%eax
    1978:	8b 4d f0             	mov    -0x10(%ebp),%ecx
    197b:	89 88 88 00 00 00    	mov    %ecx,0x88(%eax)
    1981:	8b 04 b5 20 00 00 00 	mov    0x20(,%esi,4),%eax
    1988:	c7 80 8c 00 00 00 00 	movl   $0x0,0x8c(%eax)
    198f:	00 00 00 
    1992:	89 d8                	mov    %ebx,%eax
    1994:	8b 75 f8             	mov    -0x8(%ebp),%esi
    1997:	8b 5d f4             	mov    -0xc(%ebp),%ebx
    199a:	8b 7d fc             	mov    -0x4(%ebp),%edi
    199d:	89 ec                	mov    %ebp,%esp
    199f:	5d                   	pop    %ebp
    19a0:	c3                   	ret    
    19a1:	eb 0d                	jmp    19b0 <fsm_unregister_destroy>
    19a3:	90                   	nop
    19a4:	90                   	nop
    19a5:	90                   	nop
    19a6:	90                   	nop
    19a7:	90                   	nop
    19a8:	90                   	nop
    19a9:	90                   	nop
    19aa:	90                   	nop
    19ab:	90                   	nop
    19ac:	90                   	nop
    19ad:	90                   	nop
    19ae:	90                   	nop
    19af:	90                   	nop

000019b0 <fsm_unregister_destroy>:
    19b0:	55                   	push   %ebp
    19b1:	89 e5                	mov    %esp,%ebp
    19b3:	53                   	push   %ebx
    19b4:	e8 fc ff ff ff       	call   19b5 <fsm_unregister_destroy+0x5>
    19b9:	8d 98 9c 00 00 00    	lea    0x9c(%eax),%ebx
    19bf:	8b 04 9d 20 00 00 00 	mov    0x20(,%ebx,4),%eax
    19c6:	85 c0                	test   %eax,%eax
    19c8:	74 10                	je     19da <fsm_unregister_destroy+0x2a>
    19ca:	e8 fc ff ff ff       	call   19cb <fsm_unregister_destroy+0x1b>
    19cf:	c7 04 9d 20 00 00 00 	movl   $0x0,0x20(,%ebx,4)
    19d6:	00 00 00 00 
    19da:	5b                   	pop    %ebx
    19db:	5d                   	pop    %ebp
    19dc:	c3                   	ret    
    19dd:	8d 76 00             	lea    0x0(%esi),%esi

000019e0 <fsm_core_destroy>:
    19e0:	55                   	push   %ebp
    19e1:	89 e5                	mov    %esp,%ebp
    19e3:	53                   	push   %ebx
    19e4:	e8 fc ff ff ff       	call   19e5 <fsm_core_destroy+0x5>
    19e9:	a1 28 00 00 00       	mov    0x28,%eax
    19ee:	85 c0                	test   %eax,%eax
    19f0:	75 56                	jne    1a48 <fsm_core_destroy+0x68>
    19f2:	31 db                	xor    %ebx,%ebx
    19f4:	8d 74 26 00          	lea    0x0(%esi,%eiz,1),%esi
    19f8:	89 d8                	mov    %ebx,%eax
    19fa:	83 c3 01             	add    $0x1,%ebx
    19fd:	e8 fc ff ff ff       	call   19fe <fsm_core_destroy+0x1e>
    1a02:	83 fb 06             	cmp    $0x6,%ebx
    1a05:	75 f1                	jne    19f8 <fsm_core_destroy+0x18>
    1a07:	a1 b8 02 00 00       	mov    0x2b8,%eax
    1a0c:	e8 fc ff ff ff       	call   1a0d <fsm_core_destroy+0x2d>
    1a11:	a1 bc 02 00 00       	mov    0x2bc,%eax
    1a16:	e8 fc ff ff ff       	call   1a17 <fsm_core_destroy+0x37>
    1a1b:	a1 c0 02 00 00       	mov    0x2c0,%eax
    1a20:	e8 fc ff ff ff       	call   1a21 <fsm_core_destroy+0x41>
    1a25:	a1 c4 02 00 00       	mov    0x2c4,%eax
    1a2a:	e8 fc ff ff ff       	call   1a2b <fsm_core_destroy+0x4b>
    1a2f:	a1 c8 02 00 00       	mov    0x2c8,%eax
    1a34:	e8 fc ff ff ff       	call   1a35 <fsm_core_destroy+0x55>
    1a39:	a1 cc 02 00 00       	mov    0x2cc,%eax
    1a3e:	e8 fc ff ff ff       	call   1a3f <fsm_core_destroy+0x5f>
    1a43:	5b                   	pop    %ebx
    1a44:	5d                   	pop    %ebp
    1a45:	c3                   	ret    
    1a46:	66 90                	xchg   %ax,%ax
    1a48:	e8 fc ff ff ff       	call   1a49 <fsm_core_destroy+0x69>
    1a4d:	8d 76 00             	lea    0x0(%esi),%esi
    1a50:	eb a0                	jmp    19f2 <fsm_core_destroy+0x12>
    1a52:	8d b4 26 00 00 00 00 	lea    0x0(%esi,%eiz,1),%esi
    1a59:	8d bc 27 00 00 00 00 	lea    0x0(%edi,%eiz,1),%edi

00001a60 <fsm_mainport_bind>:
    1a60:	55                   	push   %ebp
    1a61:	89 e5                	mov    %esp,%ebp
    1a63:	e8 fc ff ff ff       	call   1a64 <fsm_mainport_bind+0x4>
    1a68:	5d                   	pop    %ebp
    1a69:	a3 8c 02 00 00       	mov    %eax,0x28c
    1a6e:	c3                   	ret    
    1a6f:	90                   	nop

00001a70 <setTimer>:
    1a70:	55                   	push   %ebp
    1a71:	89 e5                	mov    %esp,%ebp
    1a73:	83 ec 14             	sub    $0x14,%esp
    1a76:	89 5d f8             	mov    %ebx,-0x8(%ebp)
    1a79:	89 75 fc             	mov    %esi,-0x4(%ebp)
    1a7c:	e8 fc ff ff ff       	call   1a7d <setTimer+0xd>
    1a81:	89 c3                	mov    %eax,%ebx
    1a83:	89 d6                	mov    %edx,%esi
    1a85:	81 eb 2c 01 00 00    	sub    $0x12c,%ebx
    1a8b:	89 54 24 08          	mov    %edx,0x8(%esp)
    1a8f:	89 44 24 04          	mov    %eax,0x4(%esp)
    1a93:	c7 04 24 5a 00 00 00 	movl   $0x5a,(%esp)
    1a9a:	e8 fc ff ff ff       	call   1a9b <setTimer+0x2b>
    1a9f:	83 fb 15             	cmp    $0x15,%ebx
    1aa2:	77 24                	ja     1ac8 <setTimer+0x58>
    1aa4:	ff 24 9d 00 00 00 00 	jmp    *0x0(,%ebx,4)
    1aab:	90                   	nop
    1aac:	8d 74 26 00          	lea    0x0(%esi,%eiz,1),%esi
    1ab0:	ba 15 00 00 00       	mov    $0x15,%edx
    1ab5:	89 f0                	mov    %esi,%eax
    1ab7:	e8 fc ff ff ff       	call   1ab8 <setTimer+0x48>
    1abc:	a3 4c 03 00 00       	mov    %eax,0x34c
    1ac1:	8d b4 26 00 00 00 00 	lea    0x0(%esi,%eiz,1),%esi
    1ac8:	8b 5d f8             	mov    -0x8(%ebp),%ebx
    1acb:	8b 75 fc             	mov    -0x4(%ebp),%esi
    1ace:	89 ec                	mov    %ebp,%esp
    1ad0:	5d                   	pop    %ebp
    1ad1:	c3                   	ret    
    1ad2:	8d b6 00 00 00 00    	lea    0x0(%esi),%esi
    1ad8:	89 f0                	mov    %esi,%eax
    1ada:	ba 03 00 00 00       	mov    $0x3,%edx
    1adf:	e8 fc ff ff ff       	call   1ae0 <setTimer+0x70>
    1ae4:	8b 5d f8             	mov    -0x8(%ebp),%ebx
    1ae7:	8b 75 fc             	mov    -0x4(%ebp),%esi
    1aea:	a3 34 03 00 00       	mov    %eax,0x334
    1aef:	89 ec                	mov    %ebp,%esp
    1af1:	5d                   	pop    %ebp
    1af2:	c3                   	ret    
    1af3:	90                   	nop
    1af4:	8d 74 26 00          	lea    0x0(%esi,%eiz,1),%esi
    1af8:	89 f0                	mov    %esi,%eax
    1afa:	ba 0c 00 00 00       	mov    $0xc,%edx
    1aff:	e8 fc ff ff ff       	call   1b00 <setTimer+0x90>
    1b04:	8b 5d f8             	mov    -0x8(%ebp),%ebx
    1b07:	8b 75 fc             	mov    -0x4(%ebp),%esi
    1b0a:	a3 38 03 00 00       	mov    %eax,0x338
    1b0f:	89 ec                	mov    %ebp,%esp
    1b11:	5d                   	pop    %ebp
    1b12:	c3                   	ret    
    1b13:	90                   	nop
    1b14:	8d 74 26 00          	lea    0x0(%esi,%eiz,1),%esi
    1b18:	89 f0                	mov    %esi,%eax
    1b1a:	ba 12 00 00 00       	mov    $0x12,%edx
    1b1f:	e8 fc ff ff ff       	call   1b20 <setTimer+0xb0>
    1b24:	8b 5d f8             	mov    -0x8(%ebp),%ebx
    1b27:	8b 75 fc             	mov    -0x4(%ebp),%esi
    1b2a:	a3 3c 03 00 00       	mov    %eax,0x33c
    1b2f:	89 ec                	mov    %ebp,%esp
    1b31:	5d                   	pop    %ebp
    1b32:	c3                   	ret    
    1b33:	90                   	nop
    1b34:	8d 74 26 00          	lea    0x0(%esi,%eiz,1),%esi
    1b38:	89 f0                	mov    %esi,%eax
    1b3a:	ba 13 00 00 00       	mov    $0x13,%edx
    1b3f:	e8 fc ff ff ff       	call   1b40 <setTimer+0xd0>
    1b44:	8b 5d f8             	mov    -0x8(%ebp),%ebx
    1b47:	8b 75 fc             	mov    -0x4(%ebp),%esi
    1b4a:	a3 40 03 00 00       	mov    %eax,0x340
    1b4f:	89 ec                	mov    %ebp,%esp
    1b51:	5d                   	pop    %ebp
    1b52:	c3                   	ret    
    1b53:	90                   	nop
    1b54:	8d 74 26 00          	lea    0x0(%esi,%eiz,1),%esi
    1b58:	89 f0                	mov    %esi,%eax
    1b5a:	ba 0d 00 00 00       	mov    $0xd,%edx
    1b5f:	e8 fc ff ff ff       	call   1b60 <setTimer+0xf0>
    1b64:	8b 5d f8             	mov    -0x8(%ebp),%ebx
    1b67:	8b 75 fc             	mov    -0x4(%ebp),%esi
    1b6a:	a3 44 03 00 00       	mov    %eax,0x344
    1b6f:	89 ec                	mov    %ebp,%esp
    1b71:	5d                   	pop    %ebp
    1b72:	c3                   	ret    
    1b73:	90                   	nop
    1b74:	8d 74 26 00          	lea    0x0(%esi,%eiz,1),%esi
    1b78:	89 f0                	mov    %esi,%eax
    1b7a:	ba 14 00 00 00       	mov    $0x14,%edx
    1b7f:	e8 fc ff ff ff       	call   1b80 <setTimer+0x110>
    1b84:	8b 5d f8             	mov    -0x8(%ebp),%ebx
    1b87:	8b 75 fc             	mov    -0x4(%ebp),%esi
    1b8a:	a3 48 03 00 00       	mov    %eax,0x348
    1b8f:	89 ec                	mov    %ebp,%esp
    1b91:	5d                   	pop    %ebp
    1b92:	c3                   	ret    
    1b93:	8d b6 00 00 00 00    	lea    0x0(%esi),%esi
    1b99:	8d bc 27 00 00 00 00 	lea    0x0(%edi,%eiz,1),%edi

00001ba0 <cancleTimer>:
    1ba0:	55                   	push   %ebp
    1ba1:	89 e5                	mov    %esp,%ebp
    1ba3:	53                   	push   %ebx
    1ba4:	83 ec 08             	sub    $0x8,%esp
    1ba7:	e8 fc ff ff ff       	call   1ba8 <cancleTimer+0x8>
    1bac:	89 c3                	mov    %eax,%ebx
    1bae:	81 eb 2c 01 00 00    	sub    $0x12c,%ebx
    1bb4:	89 44 24 04          	mov    %eax,0x4(%esp)
    1bb8:	c7 04 24 78 00 00 00 	movl   $0x78,(%esp)
    1bbf:	e8 fc ff ff ff       	call   1bc0 <cancleTimer+0x20>
    1bc4:	83 fb 15             	cmp    $0x15,%ebx
    1bc7:	77 1f                	ja     1be8 <cancleTimer+0x48>
    1bc9:	ff 24 9d 58 00 00 00 	jmp    *0x58(,%ebx,4)
    1bd0:	a1 4c 03 00 00       	mov    0x34c,%eax
    1bd5:	85 c0                	test   %eax,%eax
    1bd7:	74 05                	je     1bde <cancleTimer+0x3e>
    1bd9:	e8 fc ff ff ff       	call   1bda <cancleTimer+0x3a>
    1bde:	c7 05 4c 03 00 00 00 	movl   $0x0,0x34c
    1be5:	00 00 00 
    1be8:	83 c4 08             	add    $0x8,%esp
    1beb:	5b                   	pop    %ebx
    1bec:	5d                   	pop    %ebp
    1bed:	c3                   	ret    
    1bee:	66 90                	xchg   %ax,%ax
    1bf0:	a1 34 03 00 00       	mov    0x334,%eax
    1bf5:	85 c0                	test   %eax,%eax
    1bf7:	74 05                	je     1bfe <cancleTimer+0x5e>
    1bf9:	e8 fc ff ff ff       	call   1bfa <cancleTimer+0x5a>
    1bfe:	c7 05 34 03 00 00 00 	movl   $0x0,0x334
    1c05:	00 00 00 
    1c08:	83 c4 08             	add    $0x8,%esp
    1c0b:	5b                   	pop    %ebx
    1c0c:	5d                   	pop    %ebp
    1c0d:	c3                   	ret    
    1c0e:	66 90                	xchg   %ax,%ax
    1c10:	a1 38 03 00 00       	mov    0x338,%eax
    1c15:	85 c0                	test   %eax,%eax
    1c17:	74 05                	je     1c1e <cancleTimer+0x7e>
    1c19:	e8 fc ff ff ff       	call   1c1a <cancleTimer+0x7a>
    1c1e:	c7 05 38 03 00 00 00 	movl   $0x0,0x338
    1c25:	00 00 00 
    1c28:	83 c4 08             	add    $0x8,%esp
    1c2b:	5b                   	pop    %ebx
    1c2c:	5d                   	pop    %ebp
    1c2d:	c3                   	ret    
    1c2e:	66 90                	xchg   %ax,%ax
    1c30:	a1 3c 03 00 00       	mov    0x33c,%eax
    1c35:	85 c0                	test   %eax,%eax
    1c37:	74 05                	je     1c3e <cancleTimer+0x9e>
    1c39:	e8 fc ff ff ff       	call   1c3a <cancleTimer+0x9a>
    1c3e:	c7 05 3c 03 00 00 00 	movl   $0x0,0x33c
    1c45:	00 00 00 
    1c48:	83 c4 08             	add    $0x8,%esp
    1c4b:	5b                   	pop    %ebx
    1c4c:	5d                   	pop    %ebp
    1c4d:	c3                   	ret    
    1c4e:	66 90                	xchg   %ax,%ax
    1c50:	a1 40 03 00 00       	mov    0x340,%eax
    1c55:	85 c0                	test   %eax,%eax
    1c57:	74 05                	je     1c5e <cancleTimer+0xbe>
    1c59:	e8 fc ff ff ff       	call   1c5a <cancleTimer+0xba>
    1c5e:	c7 05 40 03 00 00 00 	movl   $0x0,0x340
    1c65:	00 00 00 
    1c68:	83 c4 08             	add    $0x8,%esp
    1c6b:	5b                   	pop    %ebx
    1c6c:	5d                   	pop    %ebp
    1c6d:	c3                   	ret    
    1c6e:	66 90                	xchg   %ax,%ax
    1c70:	a1 44 03 00 00       	mov    0x344,%eax
    1c75:	85 c0                	test   %eax,%eax
    1c77:	74 05                	je     1c7e <cancleTimer+0xde>
    1c79:	e8 fc ff ff ff       	call   1c7a <cancleTimer+0xda>
    1c7e:	c7 05 44 03 00 00 00 	movl   $0x0,0x344
    1c85:	00 00 00 
    1c88:	83 c4 08             	add    $0x8,%esp
    1c8b:	5b                   	pop    %ebx
    1c8c:	5d                   	pop    %ebp
    1c8d:	c3                   	ret    
    1c8e:	66 90                	xchg   %ax,%ax
    1c90:	a1 48 03 00 00       	mov    0x348,%eax
    1c95:	85 c0                	test   %eax,%eax
    1c97:	74 05                	je     1c9e <cancleTimer+0xfe>
    1c99:	e8 fc ff ff ff       	call   1c9a <cancleTimer+0xfa>
    1c9e:	c7 05 48 03 00 00 00 	movl   $0x0,0x348
    1ca5:	00 00 00 
    1ca8:	83 c4 08             	add    $0x8,%esp
    1cab:	5b                   	pop    %ebx
    1cac:	5d                   	pop    %ebp
    1cad:	c3                   	ret    
    1cae:	66 90                	xchg   %ax,%ax

00001cb0 <checkTimer>:
    1cb0:	55                   	push   %ebp
    1cb1:	89 e5                	mov    %esp,%ebp
    1cb3:	e8 fc ff ff ff       	call   1cb4 <checkTimer+0x4>
    1cb8:	2d 2c 01 00 00       	sub    $0x12c,%eax
    1cbd:	83 f8 15             	cmp    $0x15,%eax
    1cc0:	76 06                	jbe    1cc8 <checkTimer+0x18>
    1cc2:	31 c0                	xor    %eax,%eax
    1cc4:	5d                   	pop    %ebp
    1cc5:	c3                   	ret    
    1cc6:	66 90                	xchg   %ax,%ax
    1cc8:	ff 24 85 b0 00 00 00 	jmp    *0xb0(,%eax,4)
    1ccf:	90                   	nop
    1cd0:	a1 34 03 00 00       	mov    0x334,%eax
    1cd5:	8d 76 00             	lea    0x0(%esi),%esi
    1cd8:	85 c0                	test   %eax,%eax
    1cda:	0f 95 c0             	setne  %al
    1cdd:	0f b6 c0             	movzbl %al,%eax
    1ce0:	5d                   	pop    %ebp
    1ce1:	c3                   	ret    
    1ce2:	8d b6 00 00 00 00    	lea    0x0(%esi),%esi
    1ce8:	a1 38 03 00 00       	mov    0x338,%eax
    1ced:	eb e9                	jmp    1cd8 <checkTimer+0x28>
    1cef:	90                   	nop
    1cf0:	a1 3c 03 00 00       	mov    0x33c,%eax
    1cf5:	eb e1                	jmp    1cd8 <checkTimer+0x28>
    1cf7:	90                   	nop
    1cf8:	a1 40 03 00 00       	mov    0x340,%eax
    1cfd:	eb d9                	jmp    1cd8 <checkTimer+0x28>
    1cff:	90                   	nop
    1d00:	a1 44 03 00 00       	mov    0x344,%eax
    1d05:	eb d1                	jmp    1cd8 <checkTimer+0x28>
    1d07:	90                   	nop
    1d08:	a1 48 03 00 00       	mov    0x348,%eax
    1d0d:	eb c9                	jmp    1cd8 <checkTimer+0x28>
    1d0f:	90                   	nop
    1d10:	a1 4c 03 00 00       	mov    0x34c,%eax
    1d15:	eb c1                	jmp    1cd8 <checkTimer+0x28>
    1d17:	89 f6                	mov    %esi,%esi
    1d19:	8d bc 27 00 00 00 00 	lea    0x0(%edi,%eiz,1),%edi

00001d20 <packet_send_to_pdcp>:
    1d20:	55                   	push   %ebp
    1d21:	89 e5                	mov    %esp,%ebp
    1d23:	57                   	push   %edi
    1d24:	56                   	push   %esi
    1d25:	53                   	push   %ebx
    1d26:	83 ec 0c             	sub    $0xc,%esp
    1d29:	e8 fc ff ff ff       	call   1d2a <packet_send_to_pdcp+0xa>
    1d2e:	89 cb                	mov    %ecx,%ebx
    1d30:	89 55 f0             	mov    %edx,-0x10(%ebp)
    1d33:	89 45 ec             	mov    %eax,-0x14(%ebp)
    1d36:	e8 fc ff ff ff       	call   1d37 <packet_send_to_pdcp+0x17>
    1d3b:	c7 04 24 9c 00 00 00 	movl   $0x9c,(%esp)
    1d42:	e8 fc ff ff ff       	call   1d43 <packet_send_to_pdcp+0x23>
    1d47:	b8 04 00 00 00       	mov    $0x4,%eax
    1d4c:	e8 fc ff ff ff       	call   1d4d <packet_send_to_pdcp+0x2d>
    1d51:	89 c7                	mov    %eax,%edi
    1d53:	b8 02 00 00 00       	mov    $0x2,%eax
    1d58:	e8 fc ff ff ff       	call   1d59 <packet_send_to_pdcp+0x39>
    1d5d:	83 fb 04             	cmp    $0x4,%ebx
    1d60:	89 1f                	mov    %ebx,(%edi)
    1d62:	89 c6                	mov    %eax,%esi
    1d64:	0f 84 9e 00 00 00    	je     1e08 <packet_send_to_pdcp+0xe8>
    1d6a:	83 fb 06             	cmp    $0x6,%ebx
    1d6d:	0f 84 95 00 00 00    	je     1e08 <packet_send_to_pdcp+0xe8>
    1d73:	c7 04 24 c4 00 00 00 	movl   $0xc4,(%esp)
    1d7a:	e8 fc ff ff ff       	call   1d7b <packet_send_to_pdcp+0x5b>
    1d7f:	8b 45 f0             	mov    -0x10(%ebp),%eax
    1d82:	83 c0 10             	add    $0x10,%eax
    1d85:	e8 fc ff ff ff       	call   1d86 <packet_send_to_pdcp+0x66>
    1d8a:	ba 02 00 00 00       	mov    $0x2,%edx
    1d8f:	89 c3                	mov    %eax,%ebx
    1d91:	e8 fc ff ff ff       	call   1d92 <packet_send_to_pdcp+0x72>
    1d96:	8b 83 a8 00 00 00    	mov    0xa8(%ebx),%eax
    1d9c:	b9 02 00 00 00       	mov    $0x2,%ecx
    1da1:	89 f2                	mov    %esi,%edx
    1da3:	e8 fc ff ff ff       	call   1da4 <packet_send_to_pdcp+0x84>
    1da8:	ba 04 00 00 00       	mov    $0x4,%edx
    1dad:	89 d8                	mov    %ebx,%eax
    1daf:	e8 fc ff ff ff       	call   1db0 <packet_send_to_pdcp+0x90>
    1db4:	8b 83 ac 00 00 00    	mov    0xac(%ebx),%eax
    1dba:	89 fa                	mov    %edi,%edx
    1dbc:	b9 04 00 00 00       	mov    $0x4,%ecx
    1dc1:	e8 fc ff ff ff       	call   1dc2 <packet_send_to_pdcp+0xa2>
    1dc6:	8b 4d f0             	mov    -0x10(%ebp),%ecx
    1dc9:	8b 55 ec             	mov    -0x14(%ebp),%edx
    1dcc:	8b 83 a0 00 00 00    	mov    0xa0(%ebx),%eax
    1dd2:	e8 fc ff ff ff       	call   1dd3 <packet_send_to_pdcp+0xb3>
    1dd7:	8b 55 f0             	mov    -0x10(%ebp),%edx
    1dda:	89 d8                	mov    %ebx,%eax
    1ddc:	e8 fc ff ff ff       	call   1ddd <packet_send_to_pdcp+0xbd>
    1de1:	89 f8                	mov    %edi,%eax
    1de3:	e8 fc ff ff ff       	call   1de4 <packet_send_to_pdcp+0xc4>
    1de8:	89 f0                	mov    %esi,%eax
    1dea:	e8 fc ff ff ff       	call   1deb <packet_send_to_pdcp+0xcb>
    1def:	89 d8                	mov    %ebx,%eax
    1df1:	ba 06 00 00 00       	mov    $0x6,%edx
    1df6:	e8 fc ff ff ff       	call   1df7 <packet_send_to_pdcp+0xd7>
    1dfb:	83 c4 0c             	add    $0xc,%esp
    1dfe:	5b                   	pop    %ebx
    1dff:	5e                   	pop    %esi
    1e00:	5f                   	pop    %edi
    1e01:	5d                   	pop    %ebp
    1e02:	c3                   	ret    
    1e03:	90                   	nop
    1e04:	8d 74 26 00          	lea    0x0(%esi,%eiz,1),%esi
    1e08:	c6 06 00             	movb   $0x0,(%esi)
    1e0b:	c6 46 01 01          	movb   $0x1,0x1(%esi)
    1e0f:	e9 6b ff ff ff       	jmp    1d7f <packet_send_to_pdcp+0x5f>
    1e14:	8d b6 00 00 00 00    	lea    0x0(%esi),%esi
    1e1a:	8d bf 00 00 00 00    	lea    0x0(%edi),%edi

00001e20 <packet_send_to_rlc>:
    1e20:	55                   	push   %ebp
    1e21:	89 e5                	mov    %esp,%ebp
    1e23:	57                   	push   %edi
    1e24:	56                   	push   %esi
    1e25:	53                   	push   %ebx
    1e26:	83 ec 0c             	sub    $0xc,%esp
    1e29:	e8 fc ff ff ff       	call   1e2a <packet_send_to_rlc+0xa>
    1e2e:	89 cb                	mov    %ecx,%ebx
    1e30:	89 d7                	mov    %edx,%edi
    1e32:	89 45 ec             	mov    %eax,-0x14(%ebp)
    1e35:	e8 fc ff ff ff       	call   1e36 <packet_send_to_rlc+0x16>
    1e3a:	c7 04 24 00 01 00 00 	movl   $0x100,(%esp)
    1e41:	e8 fc ff ff ff       	call   1e42 <packet_send_to_rlc+0x22>
    1e46:	b8 04 00 00 00       	mov    $0x4,%eax
    1e4b:	e8 fc ff ff ff       	call   1e4c <packet_send_to_rlc+0x2c>
    1e50:	89 45 f0             	mov    %eax,-0x10(%ebp)
    1e53:	b8 02 00 00 00       	mov    $0x2,%eax
    1e58:	e8 fc ff ff ff       	call   1e59 <packet_send_to_rlc+0x39>
    1e5d:	83 fb 05             	cmp    $0x5,%ebx
    1e60:	89 c6                	mov    %eax,%esi
    1e62:	8b 45 f0             	mov    -0x10(%ebp),%eax
    1e65:	89 18                	mov    %ebx,(%eax)
    1e67:	0f 86 ab 00 00 00    	jbe    1f18 <packet_send_to_rlc+0xf8>
    1e6d:	c7 04 24 28 01 00 00 	movl   $0x128,(%esp)
    1e74:	e8 fc ff ff ff       	call   1e75 <packet_send_to_rlc+0x55>
    1e79:	8d b4 26 00 00 00 00 	lea    0x0(%esi,%eiz,1),%esi
    1e80:	8d 47 06             	lea    0x6(%edi),%eax
    1e83:	e8 fc ff ff ff       	call   1e84 <packet_send_to_rlc+0x64>
    1e88:	ba 02 00 00 00       	mov    $0x2,%edx
    1e8d:	89 c3                	mov    %eax,%ebx
    1e8f:	e8 fc ff ff ff       	call   1e90 <packet_send_to_rlc+0x70>
    1e94:	8b 83 a8 00 00 00    	mov    0xa8(%ebx),%eax
    1e9a:	b9 02 00 00 00       	mov    $0x2,%ecx
    1e9f:	89 f2                	mov    %esi,%edx
    1ea1:	e8 fc ff ff ff       	call   1ea2 <packet_send_to_rlc+0x82>
    1ea6:	ba 04 00 00 00       	mov    $0x4,%edx
    1eab:	89 d8                	mov    %ebx,%eax
    1ead:	e8 fc ff ff ff       	call   1eae <packet_send_to_rlc+0x8e>
    1eb2:	8b 55 f0             	mov    -0x10(%ebp),%edx
    1eb5:	b9 04 00 00 00       	mov    $0x4,%ecx
    1eba:	8b 83 ac 00 00 00    	mov    0xac(%ebx),%eax
    1ec0:	e8 fc ff ff ff       	call   1ec1 <packet_send_to_rlc+0xa1>
    1ec5:	8b 55 ec             	mov    -0x14(%ebp),%edx
    1ec8:	89 f9                	mov    %edi,%ecx
    1eca:	8b 83 a0 00 00 00    	mov    0xa0(%ebx),%eax
    1ed0:	e8 fc ff ff ff       	call   1ed1 <packet_send_to_rlc+0xb1>
    1ed5:	89 fa                	mov    %edi,%edx
    1ed7:	89 d8                	mov    %ebx,%eax
    1ed9:	e8 fc ff ff ff       	call   1eda <packet_send_to_rlc+0xba>
    1ede:	8b 45 f0             	mov    -0x10(%ebp),%eax
    1ee1:	e8 fc ff ff ff       	call   1ee2 <packet_send_to_rlc+0xc2>
    1ee6:	89 f0                	mov    %esi,%eax
    1ee8:	e8 fc ff ff ff       	call   1ee9 <packet_send_to_rlc+0xc9>
    1eed:	8b 83 ac 00 00 00    	mov    0xac(%ebx),%eax
    1ef3:	ba 08 00 00 00       	mov    $0x8,%edx
    1ef8:	e8 fc ff ff ff       	call   1ef9 <packet_send_to_rlc+0xd9>
    1efd:	89 d8                	mov    %ebx,%eax
    1eff:	ba 01 00 00 00       	mov    $0x1,%edx
    1f04:	e8 fc ff ff ff       	call   1f05 <packet_send_to_rlc+0xe5>
    1f09:	83 c4 0c             	add    $0xc,%esp
    1f0c:	5b                   	pop    %ebx
    1f0d:	5e                   	pop    %esi
    1f0e:	5f                   	pop    %edi
    1f0f:	5d                   	pop    %ebp
    1f10:	c3                   	ret    
    1f11:	8d b4 26 00 00 00 00 	lea    0x0(%esi,%eiz,1),%esi
    1f18:	ff 24 9d 08 01 00 00 	jmp    *0x108(,%ebx,4)
    1f1f:	90                   	nop
    1f20:	c6 06 02             	movb   $0x2,(%esi)
    1f23:	e9 58 ff ff ff       	jmp    1e80 <packet_send_to_rlc+0x60>
    1f28:	c6 06 00             	movb   $0x0,(%esi)
    1f2b:	c6 46 01 00          	movb   $0x0,0x1(%esi)
    1f2f:	e9 4c ff ff ff       	jmp    1e80 <packet_send_to_rlc+0x60>
    1f34:	8d 74 26 00          	lea    0x0(%esi,%eiz,1),%esi
    1f38:	c6 06 01             	movb   $0x1,(%esi)
    1f3b:	e9 40 ff ff ff       	jmp    1e80 <packet_send_to_rlc+0x60>

00001f40 <packet_send_to_upperlayer>:
    1f40:	55                   	push   %ebp
    1f41:	89 e5                	mov    %esp,%ebp
    1f43:	83 ec 04             	sub    $0x4,%esp
    1f46:	e8 fc ff ff ff       	call   1f47 <packet_send_to_upperlayer+0x7>
    1f4b:	e8 fc ff ff ff       	call   1f4c <packet_send_to_upperlayer+0xc>
    1f50:	c7 04 24 64 01 00 00 	movl   $0x164,(%esp)
    1f57:	e8 fc ff ff ff       	call   1f58 <packet_send_to_upperlayer+0x18>
    1f5c:	c9                   	leave  
    1f5d:	c3                   	ret    
    1f5e:	66 90                	xchg   %ax,%ax

00001f60 <check_free_ptr>:
    1f60:	55                   	push   %ebp
    1f61:	89 e5                	mov    %esp,%ebp
    1f63:	e8 fc ff ff ff       	call   1f64 <check_free_ptr+0x4>
    1f68:	85 c0                	test   %eax,%eax
    1f6a:	74 05                	je     1f71 <check_free_ptr+0x11>
    1f6c:	e8 fc ff ff ff       	call   1f6d <check_free_ptr+0xd>
    1f71:	5d                   	pop    %ebp
    1f72:	c3                   	ret    
    1f73:	90                   	nop
    1f74:	90                   	nop
    1f75:	90                   	nop
    1f76:	90                   	nop
    1f77:	90                   	nop
    1f78:	90                   	nop
    1f79:	90                   	nop
    1f7a:	90                   	nop
    1f7b:	90                   	nop
    1f7c:	90                   	nop
    1f7d:	90                   	nop
    1f7e:	90                   	nop
    1f7f:	90                   	nop

00001f80 <rrc_messege_handler_rlc>:
    1f80:	55                   	push   %ebp
    1f81:	89 e5                	mov    %esp,%ebp
    1f83:	56                   	push   %esi
    1f84:	53                   	push   %ebx
    1f85:	83 ec 08             	sub    $0x8,%esp
    1f88:	e8 fc ff ff ff       	call   1f89 <rrc_messege_handler_rlc+0x9>
    1f8d:	89 c3                	mov    %eax,%ebx
    1f8f:	e8 fc ff ff ff       	call   1f90 <rrc_messege_handler_rlc+0x10>
    1f94:	c7 04 24 94 01 00 00 	movl   $0x194,(%esp)
    1f9b:	e8 fc ff ff ff       	call   1f9c <rrc_messege_handler_rlc+0x1c>
    1fa0:	8b b3 ac 00 00 00    	mov    0xac(%ebx),%esi
    1fa6:	ba 04 00 00 00       	mov    $0x4,%edx
    1fab:	89 d8                	mov    %ebx,%eax
    1fad:	e8 fc ff ff ff       	call   1fae <rrc_messege_handler_rlc+0x2e>
    1fb2:	8b 06                	mov    (%esi),%eax
    1fb4:	c7 04 24 96 00 00 00 	movl   $0x96,(%esp)
    1fbb:	89 44 24 04          	mov    %eax,0x4(%esp)
    1fbf:	e8 fc ff ff ff       	call   1fc0 <rrc_messege_handler_rlc+0x40>
    1fc4:	89 74 24 04          	mov    %esi,0x4(%esp)
    1fc8:	c7 04 24 bc 01 00 00 	movl   $0x1bc,(%esp)
    1fcf:	e8 fc ff ff ff       	call   1fd0 <rrc_messege_handler_rlc+0x50>
    1fd4:	8b 06                	mov    (%esi),%eax
    1fd6:	85 c0                	test   %eax,%eax
    1fd8:	74 36                	je     2010 <rrc_messege_handler_rlc+0x90>
    1fda:	83 f8 01             	cmp    $0x1,%eax
    1fdd:	0f 84 05 02 00 00    	je     21e8 <rrc_messege_handler_rlc+0x268>
    1fe3:	83 f8 02             	cmp    $0x2,%eax
    1fe6:	0f 84 e4 00 00 00    	je     20d0 <rrc_messege_handler_rlc+0x150>
    1fec:	83 f8 03             	cmp    $0x3,%eax
    1fef:	90                   	nop
    1ff0:	0f 84 3a 01 00 00    	je     2130 <rrc_messege_handler_rlc+0x1b0>
    1ff6:	83 f8 04             	cmp    $0x4,%eax
    1ff9:	74 75                	je     2070 <rrc_messege_handler_rlc+0xf0>
    1ffb:	89 d8                	mov    %ebx,%eax
    1ffd:	e8 fc ff ff ff       	call   1ffe <rrc_messege_handler_rlc+0x7e>
    2002:	83 c4 08             	add    $0x8,%esp
    2005:	5b                   	pop    %ebx
    2006:	5e                   	pop    %esi
    2007:	5d                   	pop    %ebp
    2008:	c3                   	ret    
    2009:	8d b4 26 00 00 00 00 	lea    0x0(%esi,%eiz,1),%esi
    2010:	c7 04 24 dc 01 00 00 	movl   $0x1dc,(%esp)
    2017:	e8 fc ff ff ff       	call   2018 <rrc_messege_handler_rlc+0x98>
    201c:	a1 00 00 00 00       	mov    0x0,%eax
    2021:	8b b3 ac 00 00 00    	mov    0xac(%ebx),%esi
    2027:	e8 fc ff ff ff       	call   2028 <rrc_messege_handler_rlc+0xa8>
    202c:	b8 d8 01 00 00       	mov    $0x1d8,%eax
    2031:	e8 fc ff ff ff       	call   2032 <rrc_messege_handler_rlc+0xb2>
    2036:	b9 d8 01 00 00       	mov    $0x1d8,%ecx
    203b:	89 f2                	mov    %esi,%edx
    203d:	a3 00 00 00 00       	mov    %eax,0x0
    2042:	e8 fc ff ff ff       	call   2043 <rrc_messege_handler_rlc+0xc3>
    2047:	c7 04 24 04 02 00 00 	movl   $0x204,(%esp)
    204e:	e8 fc ff ff ff       	call   204f <rrc_messege_handler_rlc+0xcf>
    2053:	ba 0e 00 00 00       	mov    $0xe,%edx
    2058:	31 c0                	xor    %eax,%eax
    205a:	e8 fc ff ff ff       	call   205b <rrc_messege_handler_rlc+0xdb>
    205f:	89 d8                	mov    %ebx,%eax
    2061:	e8 fc ff ff ff       	call   2062 <rrc_messege_handler_rlc+0xe2>
    2066:	83 c4 08             	add    $0x8,%esp
    2069:	5b                   	pop    %ebx
    206a:	5e                   	pop    %esi
    206b:	5d                   	pop    %ebp
    206c:	c3                   	ret    
    206d:	8d 76 00             	lea    0x0(%esi),%esi
    2070:	c7 04 24 80 03 00 00 	movl   $0x380,(%esp)
    2077:	e8 fc ff ff ff       	call   2078 <rrc_messege_handler_rlc+0xf8>
    207c:	8b b3 ac 00 00 00    	mov    0xac(%ebx),%esi
    2082:	8b 06                	mov    (%esi),%eax
    2084:	83 f8 01             	cmp    $0x1,%eax
    2087:	0f 84 f6 01 00 00    	je     2283 <rrc_messege_handler_rlc+0x303>
    208d:	83 f8 02             	cmp    $0x2,%eax
    2090:	0f 85 65 ff ff ff    	jne    1ffb <rrc_messege_handler_rlc+0x7b>
    2096:	a1 00 00 00 00       	mov    0x0,%eax
    209b:	e8 fc ff ff ff       	call   209c <rrc_messege_handler_rlc+0x11c>
    20a0:	b8 40 00 00 00       	mov    $0x40,%eax
    20a5:	e8 fc ff ff ff       	call   20a6 <rrc_messege_handler_rlc+0x126>
    20aa:	8d 56 04             	lea    0x4(%esi),%edx
    20ad:	b9 40 00 00 00       	mov    $0x40,%ecx
    20b2:	a3 00 00 00 00       	mov    %eax,0x0
    20b7:	e8 fc ff ff ff       	call   20b8 <rrc_messege_handler_rlc+0x138>
    20bc:	ba 07 00 00 00       	mov    $0x7,%edx
    20c1:	b8 e8 03 00 00       	mov    $0x3e8,%eax
    20c6:	e8 fc ff ff ff       	call   20c7 <rrc_messege_handler_rlc+0x147>
    20cb:	e9 2b ff ff ff       	jmp    1ffb <rrc_messege_handler_rlc+0x7b>
    20d0:	c7 04 24 54 02 00 00 	movl   $0x254,(%esp)
    20d7:	e8 fc ff ff ff       	call   20d8 <rrc_messege_handler_rlc+0x158>
    20dc:	8b b3 ac 00 00 00    	mov    0xac(%ebx),%esi
    20e2:	83 3e 01             	cmpl   $0x1,(%esi)
    20e5:	0f 84 55 01 00 00    	je     2240 <rrc_messege_handler_rlc+0x2c0>
    20eb:	a1 00 00 00 00       	mov    0x0,%eax
    20f0:	e8 fc ff ff ff       	call   20f1 <rrc_messege_handler_rlc+0x171>
    20f5:	b8 6c 01 00 00       	mov    $0x16c,%eax
    20fa:	e8 fc ff ff ff       	call   20fb <rrc_messege_handler_rlc+0x17b>
    20ff:	8d 56 04             	lea    0x4(%esi),%edx
    2102:	b9 6c 01 00 00       	mov    $0x16c,%ecx
    2107:	a3 00 00 00 00       	mov    %eax,0x0
    210c:	e8 fc ff ff ff       	call   210d <rrc_messege_handler_rlc+0x18d>
    2111:	c7 04 24 84 02 00 00 	movl   $0x284,(%esp)
    2118:	e8 fc ff ff ff       	call   2119 <rrc_messege_handler_rlc+0x199>
    211d:	ba 10 00 00 00       	mov    $0x10,%edx
    2122:	31 c0                	xor    %eax,%eax
    2124:	e8 fc ff ff ff       	call   2125 <rrc_messege_handler_rlc+0x1a5>
    2129:	e9 cd fe ff ff       	jmp    1ffb <rrc_messege_handler_rlc+0x7b>
    212e:	66 90                	xchg   %ax,%ax
    2130:	c7 04 24 a4 02 00 00 	movl   $0x2a4,(%esp)
    2137:	e8 fc ff ff ff       	call   2138 <rrc_messege_handler_rlc+0x1b8>
    213c:	8b b3 ac 00 00 00    	mov    0xac(%ebx),%esi
    2142:	8b 06                	mov    (%esi),%eax
    2144:	c7 04 24 ef 00 00 00 	movl   $0xef,(%esp)
    214b:	89 44 24 04          	mov    %eax,0x4(%esp)
    214f:	e8 fc ff ff ff       	call   2150 <rrc_messege_handler_rlc+0x1d0>
    2154:	89 74 24 04          	mov    %esi,0x4(%esp)
    2158:	c7 04 24 0b 01 00 00 	movl   $0x10b,(%esp)
    215f:	e8 fc ff ff ff       	call   2160 <rrc_messege_handler_rlc+0x1e0>
    2164:	8b 06                	mov    (%esi),%eax
    2166:	83 f8 03             	cmp    $0x3,%eax
    2169:	0f 84 4e 01 00 00    	je     22bd <rrc_messege_handler_rlc+0x33d>
    216f:	83 f8 04             	cmp    $0x4,%eax
    2172:	0f 85 83 fe ff ff    	jne    1ffb <rrc_messege_handler_rlc+0x7b>
    2178:	a1 00 00 00 00       	mov    0x0,%eax
    217d:	e8 fc ff ff ff       	call   217e <rrc_messege_handler_rlc+0x1fe>
    2182:	b8 f0 04 00 00       	mov    $0x4f0,%eax
    2187:	e8 fc ff ff ff       	call   2188 <rrc_messege_handler_rlc+0x208>
    218c:	a3 00 00 00 00       	mov    %eax,0x0
    2191:	8b 86 84 00 00 00    	mov    0x84(%esi),%eax
    2197:	c7 04 24 d0 02 00 00 	movl   $0x2d0,(%esp)
    219e:	89 44 24 04          	mov    %eax,0x4(%esp)
    21a2:	e8 fc ff ff ff       	call   21a3 <rrc_messege_handler_rlc+0x223>
    21a7:	0f b6 46 04          	movzbl 0x4(%esi),%eax
    21ab:	c7 04 24 34 03 00 00 	movl   $0x334,(%esp)
    21b2:	89 44 24 04          	mov    %eax,0x4(%esp)
    21b6:	e8 fc ff ff ff       	call   21b7 <rrc_messege_handler_rlc+0x237>
    21bb:	a1 00 00 00 00       	mov    0x0,%eax
    21c0:	8d 56 04             	lea    0x4(%esi),%edx
    21c3:	b9 f0 04 00 00       	mov    $0x4f0,%ecx
    21c8:	e8 fc ff ff ff       	call   21c9 <rrc_messege_handler_rlc+0x249>
    21cd:	ba 05 00 00 00       	mov    $0x5,%edx
    21d2:	b8 e8 03 00 00       	mov    $0x3e8,%eax
    21d7:	e8 fc ff ff ff       	call   21d8 <rrc_messege_handler_rlc+0x258>
    21dc:	e9 1a fe ff ff       	jmp    1ffb <rrc_messege_handler_rlc+0x7b>
    21e1:	8d b4 26 00 00 00 00 	lea    0x0(%esi,%eiz,1),%esi
    21e8:	c7 04 24 28 02 00 00 	movl   $0x228,(%esp)
    21ef:	e8 fc ff ff ff       	call   21f0 <rrc_messege_handler_rlc+0x270>
    21f4:	a1 00 00 00 00       	mov    0x0,%eax
    21f9:	8b b3 ac 00 00 00    	mov    0xac(%ebx),%esi
    21ff:	e8 fc ff ff ff       	call   2200 <rrc_messege_handler_rlc+0x280>
    2204:	b8 10 00 00 00       	mov    $0x10,%eax
    2209:	e8 fc ff ff ff       	call   220a <rrc_messege_handler_rlc+0x28a>
    220e:	89 f2                	mov    %esi,%edx
    2210:	b9 10 00 00 00       	mov    $0x10,%ecx
    2215:	a3 00 00 00 00       	mov    %eax,0x0
    221a:	e8 fc ff ff ff       	call   221b <rrc_messege_handler_rlc+0x29b>
    221f:	c7 04 24 b4 00 00 00 	movl   $0xb4,(%esp)
    2226:	e8 fc ff ff ff       	call   2227 <rrc_messege_handler_rlc+0x2a7>
    222b:	ba 0f 00 00 00       	mov    $0xf,%edx
    2230:	31 c0                	xor    %eax,%eax
    2232:	e8 fc ff ff ff       	call   2233 <rrc_messege_handler_rlc+0x2b3>
    2237:	e9 bf fd ff ff       	jmp    1ffb <rrc_messege_handler_rlc+0x7b>
    223c:	8d 74 26 00          	lea    0x0(%esi,%eiz,1),%esi
    2240:	a1 00 00 00 00       	mov    0x0,%eax
    2245:	e8 fc ff ff ff       	call   2246 <rrc_messege_handler_rlc+0x2c6>
    224a:	b8 0c 01 00 00       	mov    $0x10c,%eax
    224f:	e8 fc ff ff ff       	call   2250 <rrc_messege_handler_rlc+0x2d0>
    2254:	8d 56 04             	lea    0x4(%esi),%edx
    2257:	b9 0c 01 00 00       	mov    $0x10c,%ecx
    225c:	a3 00 00 00 00       	mov    %eax,0x0
    2261:	e8 fc ff ff ff       	call   2262 <rrc_messege_handler_rlc+0x2e2>
    2266:	c7 04 24 d2 00 00 00 	movl   $0xd2,(%esp)
    226d:	e8 fc ff ff ff       	call   226e <rrc_messege_handler_rlc+0x2ee>
    2272:	ba 11 00 00 00       	mov    $0x11,%edx
    2277:	31 c0                	xor    %eax,%eax
    2279:	e8 fc ff ff ff       	call   227a <rrc_messege_handler_rlc+0x2fa>
    227e:	e9 78 fd ff ff       	jmp    1ffb <rrc_messege_handler_rlc+0x7b>
    2283:	a1 00 00 00 00       	mov    0x0,%eax
    2288:	e8 fc ff ff ff       	call   2289 <rrc_messege_handler_rlc+0x309>
    228d:	b8 f0 04 00 00       	mov    $0x4f0,%eax
    2292:	e8 fc ff ff ff       	call   2293 <rrc_messege_handler_rlc+0x313>
    2297:	8d 56 04             	lea    0x4(%esi),%edx
    229a:	b9 f0 04 00 00       	mov    $0x4f0,%ecx
    229f:	a3 00 00 00 00       	mov    %eax,0x0
    22a4:	e8 fc ff ff ff       	call   22a5 <rrc_messege_handler_rlc+0x325>
    22a9:	ba 06 00 00 00       	mov    $0x6,%edx
    22ae:	b8 e8 03 00 00       	mov    $0x3e8,%eax
    22b3:	e8 fc ff ff ff       	call   22b4 <rrc_messege_handler_rlc+0x334>
    22b8:	e9 3e fd ff ff       	jmp    1ffb <rrc_messege_handler_rlc+0x7b>
    22bd:	a1 00 00 00 00       	mov    0x0,%eax
    22c2:	e8 fc ff ff ff       	call   22c3 <rrc_messege_handler_rlc+0x343>
    22c7:	b8 04 00 00 00       	mov    $0x4,%eax
    22cc:	e8 fc ff ff ff       	call   22cd <rrc_messege_handler_rlc+0x34d>
    22d1:	8d 56 04             	lea    0x4(%esi),%edx
    22d4:	b9 04 00 00 00       	mov    $0x4,%ecx
    22d9:	a3 00 00 00 00       	mov    %eax,0x0
    22de:	e8 fc ff ff ff       	call   22df <rrc_messege_handler_rlc+0x35f>
    22e3:	ba 04 00 00 00       	mov    $0x4,%edx
    22e8:	31 c0                	xor    %eax,%eax
    22ea:	e8 fc ff ff ff       	call   22eb <rrc_messege_handler_rlc+0x36b>
    22ef:	e9 07 fd ff ff       	jmp    1ffb <rrc_messege_handler_rlc+0x7b>
    22f4:	8d b6 00 00 00 00    	lea    0x0(%esi),%esi
    22fa:	8d bf 00 00 00 00    	lea    0x0(%edi),%edi

00002300 <rrc_messege_handler_upper>:
    2300:	55                   	push   %ebp
    2301:	89 e5                	mov    %esp,%ebp
    2303:	53                   	push   %ebx
    2304:	83 ec 04             	sub    $0x4,%esp
    2307:	e8 fc ff ff ff       	call   2308 <rrc_messege_handler_upper+0x8>
    230c:	89 c3                	mov    %eax,%ebx
    230e:	e8 fc ff ff ff       	call   230f <rrc_messege_handler_upper+0xf>
    2313:	c7 04 24 ac 03 00 00 	movl   $0x3ac,(%esp)
    231a:	e8 fc ff ff ff       	call   231b <rrc_messege_handler_upper+0x1b>
    231f:	89 d8                	mov    %ebx,%eax
    2321:	e8 fc ff ff ff       	call   2322 <rrc_messege_handler_upper+0x22>
    2326:	83 c4 04             	add    $0x4,%esp
    2329:	5b                   	pop    %ebx
    232a:	5d                   	pop    %ebp
    232b:	c3                   	ret    
    232c:	8d 74 26 00          	lea    0x0(%esi,%eiz,1),%esi

00002330 <other_events_handler>:
    2330:	55                   	push   %ebp
    2331:	89 e5                	mov    %esp,%ebp
    2333:	57                   	push   %edi
    2334:	56                   	push   %esi
    2335:	53                   	push   %ebx
    2336:	81 ec 28 02 00 00    	sub    $0x228,%esp
    233c:	e8 fc ff ff ff       	call   233d <other_events_handler+0xd>
    2341:	e8 fc ff ff ff       	call   2342 <other_events_handler+0x12>
    2346:	c7 04 24 d8 03 00 00 	movl   $0x3d8,(%esp)
    234d:	e8 fc ff ff ff       	call   234e <other_events_handler+0x1e>
    2352:	e8 fc ff ff ff       	call   2353 <other_events_handler+0x23>
    2357:	89 c3                	mov    %eax,%ebx
    2359:	e8 fc ff ff ff       	call   235a <other_events_handler+0x2a>
    235e:	83 f8 03             	cmp    $0x3,%eax
    2361:	74 7d                	je     23e0 <other_events_handler+0xb0>
    2363:	e8 fc ff ff ff       	call   2364 <other_events_handler+0x34>
    2368:	83 f8 03             	cmp    $0x3,%eax
    236b:	0f 84 cf 00 00 00    	je     2440 <other_events_handler+0x110>
    2371:	e8 fc ff ff ff       	call   2372 <other_events_handler+0x42>
    2376:	83 f8 03             	cmp    $0x3,%eax
    2379:	0f 84 49 01 00 00    	je     24c8 <other_events_handler+0x198>
    237f:	90                   	nop
    2380:	e8 fc ff ff ff       	call   2381 <other_events_handler+0x51>
    2385:	83 f8 03             	cmp    $0x3,%eax
    2388:	0f 84 a2 01 00 00    	je     2530 <other_events_handler+0x200>
    238e:	66 90                	xchg   %ax,%ax
    2390:	e8 fc ff ff ff       	call   2391 <other_events_handler+0x61>
    2395:	83 f8 03             	cmp    $0x3,%eax
    2398:	0f 84 e2 01 00 00    	je     2580 <other_events_handler+0x250>
    239e:	66 90                	xchg   %ax,%ax
    23a0:	e8 fc ff ff ff       	call   23a1 <other_events_handler+0x71>
    23a5:	83 f8 03             	cmp    $0x3,%eax
    23a8:	0f 84 f0 01 00 00    	je     259e <other_events_handler+0x26e>
    23ae:	66 90                	xchg   %ax,%ax
    23b0:	e8 fc ff ff ff       	call   23b1 <other_events_handler+0x81>
    23b5:	83 f8 03             	cmp    $0x3,%eax
    23b8:	0f 84 00 02 00 00    	je     25be <other_events_handler+0x28e>
    23be:	66 90                	xchg   %ax,%ax
    23c0:	e8 fc ff ff ff       	call   23c1 <other_events_handler+0x91>
    23c5:	83 f8 03             	cmp    $0x3,%eax
    23c8:	0f 84 10 02 00 00    	je     25de <other_events_handler+0x2ae>
    23ce:	81 c4 28 02 00 00    	add    $0x228,%esp
    23d4:	5b                   	pop    %ebx
    23d5:	5e                   	pop    %esi
    23d6:	5f                   	pop    %edi
    23d7:	5d                   	pop    %ebp
    23d8:	c3                   	ret    
    23d9:	8d b4 26 00 00 00 00 	lea    0x0(%esi,%eiz,1),%esi
    23e0:	e8 fc ff ff ff       	call   23e1 <other_events_handler+0xb1>
    23e5:	83 f8 0e             	cmp    $0xe,%eax
    23e8:	0f 85 75 ff ff ff    	jne    2363 <other_events_handler+0x33>
    23ee:	8b 03                	mov    (%ebx),%eax
    23f0:	83 f8 0b             	cmp    $0xb,%eax
    23f3:	74 09                	je     23fe <other_events_handler+0xce>
    23f5:	83 f8 07             	cmp    $0x7,%eax
    23f8:	0f 85 65 ff ff ff    	jne    2363 <other_events_handler+0x33>
    23fe:	c7 04 24 00 04 00 00 	movl   $0x400,(%esp)
    2405:	e8 fc ff ff ff       	call   2406 <other_events_handler+0xd6>
    240a:	a1 00 00 00 00       	mov    0x0,%eax
    240f:	83 3b 07             	cmpl   $0x7,(%ebx)
    2412:	0f 84 3d 02 00 00    	je     2655 <other_events_handler+0x325>
    2418:	80 b8 d4 01 00 00 00 	cmpb   $0x0,0x1d4(%eax)
    241f:	74 11                	je     2432 <other_events_handler+0x102>
    2421:	c7 04 24 28 04 00 00 	movl   $0x428,(%esp)
    2428:	e8 fc ff ff ff       	call   2429 <other_events_handler+0xf9>
    242d:	e8 fc ff ff ff       	call   242e <other_events_handler+0xfe>
    2432:	c7 04 24 84 04 00 00 	movl   $0x484,(%esp)
    2439:	e8 fc ff ff ff       	call   243a <other_events_handler+0x10a>
    243e:	eb 8e                	jmp    23ce <other_events_handler+0x9e>
    2440:	e8 fc ff ff ff       	call   2441 <other_events_handler+0x111>
    2445:	83 f8 0f             	cmp    $0xf,%eax
    2448:	0f 85 23 ff ff ff    	jne    2371 <other_events_handler+0x41>
    244e:	8b 03                	mov    (%ebx),%eax
    2450:	83 f8 07             	cmp    $0x7,%eax
    2453:	74 0e                	je     2463 <other_events_handler+0x133>
    2455:	83 f8 05             	cmp    $0x5,%eax
    2458:	74 09                	je     2463 <other_events_handler+0x133>
    245a:	83 f8 0b             	cmp    $0xb,%eax
    245d:	0f 85 0e ff ff ff    	jne    2371 <other_events_handler+0x41>
    2463:	a1 00 00 00 00       	mov    0x0,%eax
    2468:	c6 05 00 00 00 00 01 	movb   $0x1,0x0
    246f:	e8 fc ff ff ff       	call   2470 <other_events_handler+0x140>
    2474:	83 3b 05             	cmpl   $0x5,(%ebx)
    2477:	0f 85 51 ff ff ff    	jne    23ce <other_events_handler+0x9e>
    247d:	80 3d 00 00 00 00 00 	cmpb   $0x0,0x0
    2484:	0f 84 44 ff ff ff    	je     23ce <other_events_handler+0x9e>
    248a:	80 3d 00 00 00 00 00 	cmpb   $0x0,0x0
    2491:	0f 84 37 ff ff ff    	je     23ce <other_events_handler+0x9e>
    2497:	80 3d 00 00 00 00 00 	cmpb   $0x0,0x0
    249e:	0f 84 2a ff ff ff    	je     23ce <other_events_handler+0x9e>
    24a4:	c7 04 24 b0 04 00 00 	movl   $0x4b0,(%esp)
    24ab:	e8 fc ff ff ff       	call   24ac <other_events_handler+0x17c>
    24b0:	ba 01 00 00 00       	mov    $0x1,%edx
    24b5:	31 c0                	xor    %eax,%eax
    24b7:	e8 fc ff ff ff       	call   24b8 <other_events_handler+0x188>
    24bc:	e9 0d ff ff ff       	jmp    23ce <other_events_handler+0x9e>
    24c1:	8d b4 26 00 00 00 00 	lea    0x0(%esi,%eiz,1),%esi
    24c8:	e8 fc ff ff ff       	call   24c9 <other_events_handler+0x199>
    24cd:	83 f8 10             	cmp    $0x10,%eax
    24d0:	0f 85 a9 fe ff ff    	jne    237f <other_events_handler+0x4f>
    24d6:	8b 03                	mov    (%ebx),%eax
    24d8:	83 f8 07             	cmp    $0x7,%eax
    24db:	74 0e                	je     24eb <other_events_handler+0x1bb>
    24dd:	83 f8 05             	cmp    $0x5,%eax
    24e0:	74 09                	je     24eb <other_events_handler+0x1bb>
    24e2:	83 f8 0b             	cmp    $0xb,%eax
    24e5:	0f 85 94 fe ff ff    	jne    237f <other_events_handler+0x4f>
    24eb:	c6 05 00 00 00 00 01 	movb   $0x1,0x0
    24f2:	c7 04 24 28 05 00 00 	movl   $0x528,(%esp)
    24f9:	e8 fc ff ff ff       	call   24fa <other_events_handler+0x1ca>
    24fe:	8b 35 00 00 00 00    	mov    0x0,%esi
    2504:	b9 30 00 00 00       	mov    $0x30,%ecx
    2509:	89 e7                	mov    %esp,%edi
    250b:	f3 a5                	rep movsl %ds:(%esi),%es:(%edi)
    250d:	e8 fc ff ff ff       	call   250e <other_events_handler+0x1de>
    2512:	c7 04 24 4c 05 00 00 	movl   $0x54c,(%esp)
    2519:	e8 fc ff ff ff       	call   251a <other_events_handler+0x1ea>
    251e:	83 3b 05             	cmpl   $0x5,(%ebx)
    2521:	0f 85 a7 fe ff ff    	jne    23ce <other_events_handler+0x9e>
    2527:	e9 51 ff ff ff       	jmp    247d <other_events_handler+0x14d>
    252c:	8d 74 26 00          	lea    0x0(%esi,%eiz,1),%esi
    2530:	e8 fc ff ff ff       	call   2531 <other_events_handler+0x201>
    2535:	83 f8 11             	cmp    $0x11,%eax
    2538:	0f 85 50 fe ff ff    	jne    238e <other_events_handler+0x5e>
    253e:	8b 03                	mov    (%ebx),%eax
    2540:	83 f8 07             	cmp    $0x7,%eax
    2543:	74 0e                	je     2553 <other_events_handler+0x223>
    2545:	83 f8 05             	cmp    $0x5,%eax
    2548:	74 09                	je     2553 <other_events_handler+0x223>
    254a:	83 f8 0b             	cmp    $0xb,%eax
    254d:	0f 85 3b fe ff ff    	jne    238e <other_events_handler+0x5e>
    2553:	c7 04 24 74 05 00 00 	movl   $0x574,(%esp)
    255a:	e8 fc ff ff ff       	call   255b <other_events_handler+0x22b>
    255f:	8b 35 00 00 00 00    	mov    0x0,%esi
    2565:	80 3e 00             	cmpb   $0x0,(%esi)
    2568:	0f 85 82 00 00 00    	jne    25f0 <other_events_handler+0x2c0>
    256e:	c7 04 24 98 05 00 00 	movl   $0x598,(%esp)
    2575:	e8 fc ff ff ff       	call   2576 <other_events_handler+0x246>
    257a:	e9 4f fe ff ff       	jmp    23ce <other_events_handler+0x9e>
    257f:	90                   	nop
    2580:	e8 fc ff ff ff       	call   2581 <other_events_handler+0x251>
    2585:	83 f8 12             	cmp    $0x12,%eax
    2588:	0f 84 40 fe ff ff    	je     23ce <other_events_handler+0x9e>
    258e:	66 90                	xchg   %ax,%ax
    2590:	e8 fc ff ff ff       	call   2591 <other_events_handler+0x261>
    2595:	83 f8 03             	cmp    $0x3,%eax
    2598:	0f 85 10 fe ff ff    	jne    23ae <other_events_handler+0x7e>
    259e:	66 90                	xchg   %ax,%ax
    25a0:	e8 fc ff ff ff       	call   25a1 <other_events_handler+0x271>
    25a5:	83 f8 13             	cmp    $0x13,%eax
    25a8:	0f 84 20 fe ff ff    	je     23ce <other_events_handler+0x9e>
    25ae:	66 90                	xchg   %ax,%ax
    25b0:	e8 fc ff ff ff       	call   25b1 <other_events_handler+0x281>
    25b5:	83 f8 03             	cmp    $0x3,%eax
    25b8:	0f 85 00 fe ff ff    	jne    23be <other_events_handler+0x8e>
    25be:	66 90                	xchg   %ax,%ax
    25c0:	e8 fc ff ff ff       	call   25c1 <other_events_handler+0x291>
    25c5:	83 f8 14             	cmp    $0x14,%eax
    25c8:	0f 84 00 fe ff ff    	je     23ce <other_events_handler+0x9e>
    25ce:	66 90                	xchg   %ax,%ax
    25d0:	e8 fc ff ff ff       	call   25d1 <other_events_handler+0x2a1>
    25d5:	83 f8 03             	cmp    $0x3,%eax
    25d8:	0f 85 f0 fd ff ff    	jne    23ce <other_events_handler+0x9e>
    25de:	66 90                	xchg   %ax,%ax
    25e0:	e8 fc ff ff ff       	call   25e1 <other_events_handler+0x2b1>
    25e5:	81 c4 28 02 00 00    	add    $0x228,%esp
    25eb:	5b                   	pop    %ebx
    25ec:	5e                   	pop    %esi
    25ed:	5f                   	pop    %edi
    25ee:	5d                   	pop    %ebp
    25ef:	c3                   	ret    
    25f0:	c6 05 00 00 00 00 01 	movb   $0x1,0x0
    25f7:	83 c6 24             	add    $0x24,%esi
    25fa:	89 e7                	mov    %esp,%edi
    25fc:	b9 2f 00 00 00       	mov    $0x2f,%ecx
    2601:	f3 a5                	rep movsl %ds:(%esi),%es:(%edi)
    2603:	e8 fc ff ff ff       	call   2604 <other_events_handler+0x2d4>
    2608:	83 3b 05             	cmpl   $0x5,(%ebx)
    260b:	0f 85 5d ff ff ff    	jne    256e <other_events_handler+0x23e>
    2611:	80 3d 00 00 00 00 00 	cmpb   $0x0,0x0
    2618:	0f 84 50 ff ff ff    	je     256e <other_events_handler+0x23e>
    261e:	80 3d 00 00 00 00 00 	cmpb   $0x0,0x0
    2625:	0f 84 43 ff ff ff    	je     256e <other_events_handler+0x23e>
    262b:	80 3d 00 00 00 00 00 	cmpb   $0x0,0x0
    2632:	0f 84 36 ff ff ff    	je     256e <other_events_handler+0x23e>
    2638:	c7 04 24 b0 04 00 00 	movl   $0x4b0,(%esp)
    263f:	e8 fc ff ff ff       	call   2640 <other_events_handler+0x310>
    2644:	ba 01 00 00 00       	mov    $0x1,%edx
    2649:	31 c0                	xor    %eax,%eax
    264b:	e8 fc ff ff ff       	call   264c <other_events_handler+0x31c>
    2650:	e9 19 ff ff ff       	jmp    256e <other_events_handler+0x23e>
    2655:	80 38 00             	cmpb   $0x0,(%eax)
    2658:	0f 84 ba fd ff ff    	je     2418 <other_events_handler+0xe8>
    265e:	8d bc 24 d0 01 00 00 	lea    0x1d0(%esp),%edi
    2665:	be 00 00 00 00       	mov    $0x0,%esi
    266a:	b9 16 00 00 00       	mov    $0x16,%ecx
    266f:	f3 a5                	rep movsl %ds:(%esi),%es:(%edi)
    2671:	8d 70 04             	lea    0x4(%eax),%esi
    2674:	89 e7                	mov    %esp,%edi
    2676:	b1 74                	mov    $0x74,%cl
    2678:	f3 a5                	rep movsl %ds:(%esi),%es:(%edi)
    267a:	e8 fc ff ff ff       	call   267b <other_events_handler+0x34b>
    267f:	a1 00 00 00 00       	mov    0x0,%eax
    2684:	e9 8f fd ff ff       	jmp    2418 <other_events_handler+0xe8>
    2689:	8d b4 26 00 00 00 00 	lea    0x0(%esi,%eiz,1),%esi

00002690 <transit_to_idle_connecting>:
    2690:	55                   	push   %ebp
    2691:	89 e5                	mov    %esp,%ebp
    2693:	57                   	push   %edi
    2694:	56                   	push   %esi
    2695:	53                   	push   %ebx
    2696:	81 ec 4c 02 00 00    	sub    $0x24c,%esp
    269c:	e8 fc ff ff ff       	call   269d <transit_to_idle_connecting+0xd>
    26a1:	c7 04 24 c0 05 00 00 	movl   $0x5c0,(%esp)
    26a8:	8d bd 88 fe ff ff    	lea    -0x178(%ebp),%edi
    26ae:	e8 fc ff ff ff       	call   26af <transit_to_idle_connecting+0x1f>
    26b3:	e8 fc ff ff ff       	call   26b4 <transit_to_idle_connecting+0x24>
    26b8:	b9 36 00 00 00       	mov    $0x36,%ecx
    26bd:	8d b0 14 04 00 00    	lea    0x414(%eax),%esi
    26c3:	89 c3                	mov    %eax,%ebx
    26c5:	f3 a5                	rep movsl %ds:(%esi),%es:(%edi)
    26c7:	8d 7d b0             	lea    -0x50(%ebp),%edi
    26ca:	8d b0 cc 03 00 00    	lea    0x3cc(%eax),%esi
    26d0:	b1 11                	mov    $0x11,%cl
    26d2:	f3 a5                	rep movsl %ds:(%esi),%es:(%edi)
    26d4:	8d bd 60 ff ff ff    	lea    -0xa0(%ebp),%edi
    26da:	8d b0 78 03 00 00    	lea    0x378(%eax),%esi
    26e0:	b1 14                	mov    $0x14,%cl
    26e2:	f3 a5                	rep movsl %ds:(%esi),%es:(%edi)
    26e4:	8d b5 88 fe ff ff    	lea    -0x178(%ebp),%esi
    26ea:	e8 fc ff ff ff       	call   26eb <transit_to_idle_connecting+0x5b>
    26ef:	89 85 84 fe ff ff    	mov    %eax,-0x17c(%ebp)
    26f5:	e8 fc ff ff ff       	call   26f6 <transit_to_idle_connecting+0x66>
    26fa:	b9 36 00 00 00       	mov    $0x36,%ecx
    26ff:	89 85 80 fe ff ff    	mov    %eax,-0x180(%ebp)
    2705:	89 e7                	mov    %esp,%edi
    2707:	f3 a5                	rep movsl %ds:(%esi),%es:(%edi)
    2709:	8d 75 b0             	lea    -0x50(%ebp),%esi
    270c:	e8 fc ff ff ff       	call   270d <transit_to_idle_connecting+0x7d>
    2711:	b9 11 00 00 00       	mov    $0x11,%ecx
    2716:	89 e7                	mov    %esp,%edi
    2718:	f3 a5                	rep movsl %ds:(%esi),%es:(%edi)
    271a:	8d b5 60 ff ff ff    	lea    -0xa0(%ebp),%esi
    2720:	e8 fc ff ff ff       	call   2721 <transit_to_idle_connecting+0x91>
    2725:	c7 04 24 ec 05 00 00 	movl   $0x5ec,(%esp)
    272c:	e8 fc ff ff ff       	call   272d <transit_to_idle_connecting+0x9d>
    2731:	b9 14 00 00 00       	mov    $0x14,%ecx
    2736:	89 e7                	mov    %esp,%edi
    2738:	f3 a5                	rep movsl %ds:(%esi),%es:(%edi)
    273a:	e8 fc ff ff ff       	call   273b <transit_to_idle_connecting+0xab>
    273f:	8b 85 84 fe ff ff    	mov    -0x17c(%ebp),%eax
    2745:	e8 fc ff ff ff       	call   2746 <transit_to_idle_connecting+0xb6>
    274a:	ba 80 84 1e 00       	mov    $0x1e8480,%edx
    274f:	b8 2c 01 00 00       	mov    $0x12c,%eax
    2754:	e8 fc ff ff ff       	call   2755 <transit_to_idle_connecting+0xc5>
    2759:	c7 04 24 6c 06 00 00 	movl   $0x66c,(%esp)
    2760:	e8 fc ff ff ff       	call   2761 <transit_to_idle_connecting+0xd1>
    2765:	8b 85 80 fe ff ff    	mov    -0x180(%ebp),%eax
    276b:	e8 fc ff ff ff       	call   276c <transit_to_idle_connecting+0xdc>
    2770:	89 d8                	mov    %ebx,%eax
    2772:	e8 fc ff ff ff       	call   2773 <transit_to_idle_connecting+0xe3>
    2777:	8b 85 84 fe ff ff    	mov    -0x17c(%ebp),%eax
    277d:	e8 fc ff ff ff       	call   277e <transit_to_idle_connecting+0xee>
    2782:	8b 85 80 fe ff ff    	mov    -0x180(%ebp),%eax
    2788:	e8 fc ff ff ff       	call   2789 <transit_to_idle_connecting+0xf9>
    278d:	81 c4 4c 02 00 00    	add    $0x24c,%esp
    2793:	5b                   	pop    %ebx
    2794:	5e                   	pop    %esi
    2795:	5f                   	pop    %edi
    2796:	5d                   	pop    %ebp
    2797:	c3                   	ret    
    2798:	90                   	nop
    2799:	8d b4 26 00 00 00 00 	lea    0x0(%esi,%eiz,1),%esi

000027a0 <rcv_rrc_conn_setup>:
    27a0:	55                   	push   %ebp
    27a1:	89 e5                	mov    %esp,%ebp
    27a3:	57                   	push   %edi
    27a4:	56                   	push   %esi
    27a5:	81 ec e8 00 00 00    	sub    $0xe8,%esp
    27ab:	e8 fc ff ff ff       	call   27ac <rcv_rrc_conn_setup+0xc>
    27b0:	c7 04 24 a8 06 00 00 	movl   $0x6a8,(%esp)
    27b7:	e8 fc ff ff ff       	call   27b8 <rcv_rrc_conn_setup+0x18>
    27bc:	a1 00 00 00 00       	mov    0x0,%eax
    27c1:	85 c0                	test   %eax,%eax
    27c3:	0f 84 b7 00 00 00    	je     2880 <rcv_rrc_conn_setup+0xe0>
    27c9:	8d 7d 84             	lea    -0x7c(%ebp),%edi
    27cc:	b9 1d 00 00 00       	mov    $0x1d,%ecx
    27d1:	8d 70 08             	lea    0x8(%eax),%esi
    27d4:	f3 a5                	rep movsl %ds:(%esi),%es:(%edi)
    27d6:	8b 70 08             	mov    0x8(%eax),%esi
    27d9:	8b 80 80 00 00 00    	mov    0x80(%eax),%eax
    27df:	c7 04 24 cc 06 00 00 	movl   $0x6cc,(%esp)
    27e6:	89 44 24 04          	mov    %eax,0x4(%esp)
    27ea:	e8 fc ff ff ff       	call   27eb <rcv_rrc_conn_setup+0x4b>
    27ef:	89 74 24 04          	mov    %esi,0x4(%esp)
    27f3:	c7 04 24 ec 06 00 00 	movl   $0x6ec,(%esp)
    27fa:	e8 fc ff ff ff       	call   27fb <rcv_rrc_conn_setup+0x5b>
    27ff:	b9 1d 00 00 00       	mov    $0x1d,%ecx
    2804:	89 75 84             	mov    %esi,-0x7c(%ebp)
    2807:	8d 75 84             	lea    -0x7c(%ebp),%esi
    280a:	89 e7                	mov    %esp,%edi
    280c:	f3 a5                	rep movsl %ds:(%esi),%es:(%edi)
    280e:	e8 fc ff ff ff       	call   280f <rcv_rrc_conn_setup+0x6f>
    2813:	a1 00 00 00 00       	mov    0x0,%eax
    2818:	e8 fc ff ff ff       	call   2819 <rcv_rrc_conn_setup+0x79>
    281d:	a1 00 00 00 00       	mov    0x0,%eax
    2822:	e8 fc ff ff ff       	call   2823 <rcv_rrc_conn_setup+0x83>
    2827:	a1 00 00 00 00       	mov    0x0,%eax
    282c:	e8 fc ff ff ff       	call   282d <rcv_rrc_conn_setup+0x8d>
    2831:	b8 2e 01 00 00       	mov    $0x12e,%eax
    2836:	e8 fc ff ff ff       	call   2837 <rcv_rrc_conn_setup+0x97>
    283b:	b8 31 01 00 00       	mov    $0x131,%eax
    2840:	e8 fc ff ff ff       	call   2841 <rcv_rrc_conn_setup+0xa1>
    2845:	e8 fc ff ff ff       	call   2846 <rcv_rrc_conn_setup+0xa6>
    284a:	89 c6                	mov    %eax,%esi
    284c:	e8 fc ff ff ff       	call   284d <rcv_rrc_conn_setup+0xad>
    2851:	89 f0                	mov    %esi,%eax
    2853:	e8 fc ff ff ff       	call   2854 <rcv_rrc_conn_setup+0xb4>
    2858:	b8 2c 01 00 00       	mov    $0x12c,%eax
    285d:	e8 fc ff ff ff       	call   285e <rcv_rrc_conn_setup+0xbe>
    2862:	a1 00 00 00 00       	mov    0x0,%eax
    2867:	e8 fc ff ff ff       	call   2868 <rcv_rrc_conn_setup+0xc8>
    286c:	c7 05 00 00 00 00 00 	movl   $0x0,0x0
    2873:	00 00 00 
    2876:	81 c4 e8 00 00 00    	add    $0xe8,%esp
    287c:	5e                   	pop    %esi
    287d:	5f                   	pop    %edi
    287e:	5d                   	pop    %ebp
    287f:	c3                   	ret    
    2880:	c7 04 24 0c 07 00 00 	movl   $0x70c,(%esp)
    2887:	e8 fc ff ff ff       	call   2888 <rcv_rrc_conn_setup+0xe8>
    288c:	81 c4 e8 00 00 00    	add    $0xe8,%esp
    2892:	5e                   	pop    %esi
    2893:	5f                   	pop    %edi
    2894:	5d                   	pop    %ebp
    2895:	c3                   	ret    
    2896:	8d 76 00             	lea    0x0(%esi),%esi
    2899:	8d bc 27 00 00 00 00 	lea    0x0(%edi,%eiz,1),%edi

000028a0 <rrc_ioctl_handler>:
    28a0:	55                   	push   %ebp
    28a1:	89 e5                	mov    %esp,%ebp
    28a3:	83 ec 04             	sub    $0x4,%esp
    28a6:	e8 fc ff ff ff       	call   28a7 <rrc_ioctl_handler+0x7>
    28ab:	e8 fc ff ff ff       	call   28ac <rrc_ioctl_handler+0xc>
    28b0:	c7 04 24 34 07 00 00 	movl   $0x734,(%esp)
    28b7:	e8 fc ff ff ff       	call   28b8 <rrc_ioctl_handler+0x18>
    28bc:	e8 fc ff ff ff       	call   28bd <rrc_ioctl_handler+0x1d>
    28c1:	83 f8 03             	cmp    $0x3,%eax
    28c4:	74 4a                	je     2910 <rrc_ioctl_handler+0x70>
    28c6:	77 20                	ja     28e8 <rrc_ioctl_handler+0x48>
    28c8:	83 f8 01             	cmp    $0x1,%eax
    28cb:	90                   	nop
    28cc:	8d 74 26 00          	lea    0x0(%esi,%eiz,1),%esi
    28d0:	74 4e                	je     2920 <rrc_ioctl_handler+0x80>
    28d2:	83 f8 02             	cmp    $0x2,%eax
    28d5:	74 29                	je     2900 <rrc_ioctl_handler+0x60>
    28d7:	c7 04 24 5c 07 00 00 	movl   $0x75c,(%esp)
    28de:	e8 fc ff ff ff       	call   28df <rrc_ioctl_handler+0x3f>
    28e3:	c9                   	leave  
    28e4:	c3                   	ret    
    28e5:	8d 76 00             	lea    0x0(%esi),%esi
    28e8:	83 f8 05             	cmp    $0x5,%eax
    28eb:	72 ea                	jb     28d7 <rrc_ioctl_handler+0x37>
    28ed:	83 f8 06             	cmp    $0x6,%eax
    28f0:	76 f1                	jbe    28e3 <rrc_ioctl_handler+0x43>
    28f2:	83 f8 50             	cmp    $0x50,%eax
    28f5:	75 e0                	jne    28d7 <rrc_ioctl_handler+0x37>
    28f7:	eb ea                	jmp    28e3 <rrc_ioctl_handler+0x43>
    28f9:	8d b4 26 00 00 00 00 	lea    0x0(%esi,%eiz,1),%esi
    2900:	ba 02 00 00 00       	mov    $0x2,%edx
    2905:	31 c0                	xor    %eax,%eax
    2907:	e8 fc ff ff ff       	call   2908 <rrc_ioctl_handler+0x68>
    290c:	c9                   	leave  
    290d:	c3                   	ret    
    290e:	66 90                	xchg   %ax,%ax
    2910:	ba 07 00 00 00       	mov    $0x7,%edx
    2915:	31 c0                	xor    %eax,%eax
    2917:	e8 fc ff ff ff       	call   2918 <rrc_ioctl_handler+0x78>
    291c:	c9                   	leave  
    291d:	c3                   	ret    
    291e:	66 90                	xchg   %ax,%ax
    2920:	31 d2                	xor    %edx,%edx
    2922:	31 c0                	xor    %eax,%eax
    2924:	e8 fc ff ff ff       	call   2925 <rrc_ioctl_handler+0x85>
    2929:	c9                   	leave  
    292a:	c3                   	ret    
    292b:	90                   	nop
    292c:	8d 74 26 00          	lea    0x0(%esi,%eiz,1),%esi

00002930 <rrc_close>:
    2930:	55                   	push   %ebp
    2931:	89 e5                	mov    %esp,%ebp
    2933:	83 ec 04             	sub    $0x4,%esp
    2936:	e8 fc ff ff ff       	call   2937 <rrc_close+0x7>
    293b:	e8 fc ff ff ff       	call   293c <rrc_close+0xc>
    2940:	c7 04 24 8c 07 00 00 	movl   $0x78c,(%esp)
    2947:	e8 fc ff ff ff       	call   2948 <rrc_close+0x18>
    294c:	a1 00 00 00 00       	mov    0x0,%eax
    2951:	85 c0                	test   %eax,%eax
    2953:	74 0f                	je     2964 <rrc_close+0x34>
    2955:	e8 fc ff ff ff       	call   2956 <rrc_close+0x26>
    295a:	c7 05 00 00 00 00 00 	movl   $0x0,0x0
    2961:	00 00 00 
    2964:	a1 00 00 00 00       	mov    0x0,%eax
    2969:	85 c0                	test   %eax,%eax
    296b:	74 0f                	je     297c <rrc_close+0x4c>
    296d:	e8 fc ff ff ff       	call   296e <rrc_close+0x3e>
    2972:	c7 05 00 00 00 00 00 	movl   $0x0,0x0
    2979:	00 00 00 
    297c:	a1 00 00 00 00       	mov    0x0,%eax
    2981:	85 c0                	test   %eax,%eax
    2983:	74 0f                	je     2994 <rrc_close+0x64>
    2985:	e8 fc ff ff ff       	call   2986 <rrc_close+0x56>
    298a:	c7 05 00 00 00 00 00 	movl   $0x0,0x0
    2991:	00 00 00 
    2994:	a1 00 00 00 00       	mov    0x0,%eax
    2999:	85 c0                	test   %eax,%eax
    299b:	74 0f                	je     29ac <rrc_close+0x7c>
    299d:	e8 fc ff ff ff       	call   299e <rrc_close+0x6e>
    29a2:	c7 05 00 00 00 00 00 	movl   $0x0,0x0
    29a9:	00 00 00 
    29ac:	a1 00 00 00 00       	mov    0x0,%eax
    29b1:	85 c0                	test   %eax,%eax
    29b3:	74 0f                	je     29c4 <rrc_close+0x94>
    29b5:	e8 fc ff ff ff       	call   29b6 <rrc_close+0x86>
    29ba:	c7 05 00 00 00 00 00 	movl   $0x0,0x0
    29c1:	00 00 00 
    29c4:	a1 00 00 00 00       	mov    0x0,%eax
    29c9:	85 c0                	test   %eax,%eax
    29cb:	74 0f                	je     29dc <rrc_close+0xac>
    29cd:	e8 fc ff ff ff       	call   29ce <rrc_close+0x9e>
    29d2:	c7 05 00 00 00 00 00 	movl   $0x0,0x0
    29d9:	00 00 00 
    29dc:	a1 00 00 00 00       	mov    0x0,%eax
    29e1:	85 c0                	test   %eax,%eax
    29e3:	74 0f                	je     29f4 <rrc_close+0xc4>
    29e5:	e8 fc ff ff ff       	call   29e6 <rrc_close+0xb6>
    29ea:	c7 05 00 00 00 00 00 	movl   $0x0,0x0
    29f1:	00 00 00 
    29f4:	a1 00 00 00 00       	mov    0x0,%eax
    29f9:	85 c0                	test   %eax,%eax
    29fb:	74 0f                	je     2a0c <rrc_close+0xdc>
    29fd:	e8 fc ff ff ff       	call   29fe <rrc_close+0xce>
    2a02:	c7 05 00 00 00 00 00 	movl   $0x0,0x0
    2a09:	00 00 00 
    2a0c:	a1 00 00 00 00       	mov    0x0,%eax
    2a11:	85 c0                	test   %eax,%eax
    2a13:	74 0f                	je     2a24 <rrc_close+0xf4>
    2a15:	e8 fc ff ff ff       	call   2a16 <rrc_close+0xe6>
    2a1a:	c7 05 00 00 00 00 00 	movl   $0x0,0x0
    2a21:	00 00 00 
    2a24:	e8 fc ff ff ff       	call   2a25 <rrc_close+0xf5>
    2a29:	e8 fc ff ff ff       	call   2a2a <rrc_close+0xfa>
    2a2e:	c9                   	leave  
    2a2f:	c3                   	ret    

00002a30 <rrc_main>:
    2a30:	55                   	push   %ebp
    2a31:	89 e5                	mov    %esp,%ebp
    2a33:	83 ec 18             	sub    $0x18,%esp
    2a36:	89 5d f4             	mov    %ebx,-0xc(%ebp)
    2a39:	89 75 f8             	mov    %esi,-0x8(%ebp)
    2a3c:	89 7d fc             	mov    %edi,-0x4(%ebp)
    2a3f:	e8 fc ff ff ff       	call   2a40 <rrc_main+0x10>
    2a44:	e8 fc ff ff ff       	call   2a45 <rrc_main+0x15>
    2a49:	83 38 0f             	cmpl   $0xf,(%eax)
    2a4c:	89 c3                	mov    %eax,%ebx
    2a4e:	76 18                	jbe    2a68 <rrc_main+0x38>
    2a50:	c7 00 00 00 00 00    	movl   $0x0,(%eax)
    2a56:	66 90                	xchg   %ax,%ax
    2a58:	8b 5d f4             	mov    -0xc(%ebp),%ebx
    2a5b:	8b 75 f8             	mov    -0x8(%ebp),%esi
    2a5e:	8b 7d fc             	mov    -0x4(%ebp),%edi
    2a61:	89 ec                	mov    %ebp,%esp
    2a63:	5d                   	pop    %ebp
    2a64:	c3                   	ret    
    2a65:	8d 76 00             	lea    0x0(%esi),%esi
    2a68:	8b 00                	mov    (%eax),%eax
    2a6a:	ff 24 85 20 01 00 00 	jmp    *0x120(,%eax,4)
    2a71:	8d b4 26 00 00 00 00 	lea    0x0(%esi,%eiz,1),%esi
    2a78:	c7 05 5c 00 00 00 82 	movl   $0x182,0x5c
    2a7f:	01 00 00 
    2a82:	c7 04 24 8c 0a 00 00 	movl   $0xa8c,(%esp)
    2a89:	e8 fc ff ff ff       	call   2a8a <rrc_main+0x5a>
    2a8e:	e8 fc ff ff ff       	call   2a8f <rrc_main+0x5f>
    2a93:	83 f8 05             	cmp    $0x5,%eax
    2a96:	0f 84 1b 0a 00 00    	je     34b7 <rrc_main+0xa87>
    2a9c:	8d 74 26 00          	lea    0x0(%esi,%eiz,1),%esi
    2aa0:	e8 fc ff ff ff       	call   2aa1 <rrc_main+0x71>
    2aa5:	31 f6                	xor    %esi,%esi
    2aa7:	bf ff ff ff ff       	mov    $0xffffffff,%edi
    2aac:	83 f8 03             	cmp    $0x3,%eax
    2aaf:	0f 84 e9 09 00 00    	je     349e <rrc_main+0xa6e>
    2ab5:	e8 fc ff ff ff       	call   2ab6 <rrc_main+0x86>
    2aba:	83 f8 03             	cmp    $0x3,%eax
    2abd:	0f 84 c0 09 00 00    	je     3483 <rrc_main+0xa53>
    2ac3:	e8 fc ff ff ff       	call   2ac4 <rrc_main+0x94>
    2ac8:	83 f8 03             	cmp    $0x3,%eax
    2acb:	0f 84 94 09 00 00    	je     3465 <rrc_main+0xa35>
    2ad1:	83 fe 01             	cmp    $0x1,%esi
    2ad4:	0f 8e 9e 00 00 00    	jle    2b78 <rrc_main+0x148>
    2ada:	c7 44 24 08 95 01 00 	movl   $0x195,0x8(%esp)
    2ae1:	00 
    2ae2:	c7 44 24 04 82 01 00 	movl   $0x182,0x4(%esp)
    2ae9:	00 
    2aea:	c7 04 24 a9 01 00 00 	movl   $0x1a9,(%esp)
    2af1:	e8 fc ff ff ff       	call   2af2 <rrc_main+0xc2>
    2af6:	c7 05 5c 00 00 00 2c 	movl   $0xb2c,0x5c
    2afd:	0b 00 00 
    2b00:	c7 04 24 58 0b 00 00 	movl   $0xb58,(%esp)
    2b07:	e8 fc ff ff ff       	call   2b08 <rrc_main+0xd8>
    2b0c:	e8 fc ff ff ff       	call   2b0d <rrc_main+0xdd>
    2b11:	83 f8 05             	cmp    $0x5,%eax
    2b14:	0f 84 d5 0a 00 00    	je     35ef <rrc_main+0xbbf>
    2b1a:	e8 fc ff ff ff       	call   2b1b <rrc_main+0xeb>
    2b1f:	83 f8 02             	cmp    $0x2,%eax
    2b22:	0f 84 e2 0a 00 00    	je     360a <rrc_main+0xbda>
    2b28:	e8 fc ff ff ff       	call   2b29 <rrc_main+0xf9>
    2b2d:	83 f8 01             	cmp    $0x1,%eax
    2b30:	0f 84 2b 0b 00 00    	je     3661 <rrc_main+0xc31>
    2b36:	e8 f5 f7 ff ff       	call   2330 <other_events_handler>
    2b3b:	c7 03 08 00 00 00    	movl   $0x8,(%ebx)
    2b41:	8d b4 26 00 00 00 00 	lea    0x0(%esi,%eiz,1),%esi
    2b48:	c7 05 5c 00 00 00 82 	movl   $0x182,0x5c
    2b4f:	01 00 00 
    2b52:	c7 04 24 60 0a 00 00 	movl   $0xa60,(%esp)
    2b59:	e8 fc ff ff ff       	call   2b5a <rrc_main+0x12a>
    2b5e:	c7 03 09 00 00 00    	movl   $0x9,(%ebx)
    2b64:	8b 5d f4             	mov    -0xc(%ebp),%ebx
    2b67:	8b 75 f8             	mov    -0x8(%ebp),%esi
    2b6a:	8b 7d fc             	mov    -0x4(%ebp),%edi
    2b6d:	89 ec                	mov    %ebp,%esp
    2b6f:	5d                   	pop    %ebp
    2b70:	c3                   	ret    
    2b71:	8d b4 26 00 00 00 00 	lea    0x0(%esi,%eiz,1),%esi
    2b78:	85 f6                	test   %esi,%esi
    2b7a:	0f 84 76 ff ff ff    	je     2af6 <rrc_main+0xc6>
    2b80:	83 ff 01             	cmp    $0x1,%edi
    2b83:	0f 84 1a 07 00 00    	je     32a3 <rrc_main+0x873>
    2b89:	83 ff 02             	cmp    $0x2,%edi
    2b8c:	0f 84 f7 06 00 00    	je     3289 <rrc_main+0x859>
    2b92:	85 ff                	test   %edi,%edi
    2b94:	0f 85 5c ff ff ff    	jne    2af6 <rrc_main+0xc6>
    2b9a:	c7 05 5c 00 00 00 b4 	movl   $0xab4,0x5c
    2ba1:	0a 00 00 
    2ba4:	c7 04 24 ba 01 00 00 	movl   $0x1ba,(%esp)
    2bab:	e8 fc ff ff ff       	call   2bac <rrc_main+0x17c>
    2bb0:	31 c9                	xor    %ecx,%ecx
    2bb2:	ba 03 00 00 00       	mov    $0x3,%edx
    2bb7:	b8 01 00 00 00       	mov    $0x1,%eax
    2bbc:	c7 04 24 00 00 00 00 	movl   $0x0,(%esp)
    2bc3:	e8 fc ff ff ff       	call   2bc4 <rrc_main+0x194>
    2bc8:	b8 2c 01 00 00       	mov    $0x12c,%eax
    2bcd:	e8 fc ff ff ff       	call   2bce <rrc_main+0x19e>
    2bd2:	c7 03 06 00 00 00    	movl   $0x6,(%ebx)
    2bd8:	c7 05 5c 00 00 00 71 	movl   $0x171,0x5c
    2bdf:	01 00 00 
    2be2:	c7 04 24 9c 09 00 00 	movl   $0x99c,(%esp)
    2be9:	e8 fc ff ff ff       	call   2bea <rrc_main+0x1ba>
    2bee:	c7 03 07 00 00 00    	movl   $0x7,(%ebx)
    2bf4:	8b 5d f4             	mov    -0xc(%ebp),%ebx
    2bf7:	8b 75 f8             	mov    -0x8(%ebp),%esi
    2bfa:	8b 7d fc             	mov    -0x4(%ebp),%edi
    2bfd:	89 ec                	mov    %ebp,%esp
    2bff:	5d                   	pop    %ebp
    2c00:	c3                   	ret    
    2c01:	e8 fc ff ff ff       	call   2c02 <rrc_main+0x1d2>
    2c06:	83 f8 07             	cmp    $0x7,%eax
    2c09:	0f 85 d8 04 00 00    	jne    30e7 <rrc_main+0x6b7>
    2c0f:	83 fe 01             	cmp    $0x1,%esi
    2c12:	0f 85 e8 04 00 00    	jne    3100 <rrc_main+0x6d0>
    2c18:	c7 44 24 08 95 01 00 	movl   $0x195,0x8(%esp)
    2c1f:	00 
    2c20:	c7 44 24 04 d7 01 00 	movl   $0x1d7,0x4(%esp)
    2c27:	00 
    2c28:	c7 04 24 a9 01 00 00 	movl   $0x1a9,(%esp)
    2c2f:	e8 fc ff ff ff       	call   2c30 <rrc_main+0x200>
    2c34:	c7 05 5c 00 00 00 e0 	movl   $0xce0,0x5c
    2c3b:	0c 00 00 
    2c3e:	c7 04 24 10 0d 00 00 	movl   $0xd10,(%esp)
    2c45:	e8 fc ff ff ff       	call   2c46 <rrc_main+0x216>
    2c4a:	e8 fc ff ff ff       	call   2c4b <rrc_main+0x21b>
    2c4f:	83 f8 05             	cmp    $0x5,%eax
    2c52:	0f 84 37 09 00 00    	je     358f <rrc_main+0xb5f>
    2c58:	e8 fc ff ff ff       	call   2c59 <rrc_main+0x229>
    2c5d:	83 f8 02             	cmp    $0x2,%eax
    2c60:	0f 84 64 09 00 00    	je     35ca <rrc_main+0xb9a>
    2c66:	e8 fc ff ff ff       	call   2c67 <rrc_main+0x237>
    2c6b:	83 f8 01             	cmp    $0x1,%eax
    2c6e:	66 90                	xchg   %ax,%ax
    2c70:	0f 84 a9 09 00 00    	je     361f <rrc_main+0xbef>
    2c76:	e8 b5 f6 ff ff       	call   2330 <other_events_handler>
    2c7b:	c7 03 0a 00 00 00    	movl   $0xa,(%ebx)
    2c81:	c7 05 5c 00 00 00 d7 	movl   $0x1d7,0x5c
    2c88:	01 00 00 
    2c8b:	c7 04 24 84 0b 00 00 	movl   $0xb84,(%esp)
    2c92:	e8 fc ff ff ff       	call   2c93 <rrc_main+0x263>
    2c97:	c7 03 0b 00 00 00    	movl   $0xb,(%ebx)
    2c9d:	8b 5d f4             	mov    -0xc(%ebp),%ebx
    2ca0:	8b 75 f8             	mov    -0x8(%ebp),%esi
    2ca3:	8b 7d fc             	mov    -0x4(%ebp),%edi
    2ca6:	89 ec                	mov    %ebp,%esp
    2ca8:	5d                   	pop    %ebp
    2ca9:	c3                   	ret    
    2caa:	8d b6 00 00 00 00    	lea    0x0(%esi),%esi
    2cb0:	c7 05 5c 00 00 00 26 	movl   $0x126,0x5c
    2cb7:	01 00 00 
    2cba:	e8 d1 f9 ff ff       	call   2690 <transit_to_idle_connecting>
    2cbf:	c7 03 01 00 00 00    	movl   $0x1,(%ebx)
    2cc5:	c7 05 5c 00 00 00 26 	movl   $0x126,0x5c
    2ccc:	01 00 00 
    2ccf:	c7 04 24 2e 01 00 00 	movl   $0x12e,(%esp)
    2cd6:	e8 fc ff ff ff       	call   2cd7 <rrc_main+0x2a7>
    2cdb:	c7 03 08 00 00 00    	movl   $0x8,(%ebx)
    2ce1:	e9 62 fe ff ff       	jmp    2b48 <rrc_main+0x118>
    2ce6:	66 90                	xchg   %ax,%ax
    2ce8:	c7 05 5c 00 00 00 5c 	movl   $0x15c,0x5c
    2cef:	01 00 00 
    2cf2:	c7 04 24 d0 08 00 00 	movl   $0x8d0,(%esp)
    2cf9:	e8 fc ff ff ff       	call   2cfa <rrc_main+0x2ca>
    2cfe:	e8 fc ff ff ff       	call   2cff <rrc_main+0x2cf>
    2d03:	83 f8 05             	cmp    $0x5,%eax
    2d06:	0f 84 0b 08 00 00    	je     3517 <rrc_main+0xae7>
    2d0c:	8d 74 26 00          	lea    0x0(%esi,%eiz,1),%esi
    2d10:	e8 fc ff ff ff       	call   2d11 <rrc_main+0x2e1>
    2d15:	83 f8 03             	cmp    $0x3,%eax
    2d18:	0f 84 b1 07 00 00    	je     34cf <rrc_main+0xa9f>
    2d1e:	c7 05 5c 00 00 00 f8 	movl   $0x8f8,0x5c
    2d25:	08 00 00 
    2d28:	c7 04 24 28 09 00 00 	movl   $0x928,(%esp)
    2d2f:	e8 fc ff ff ff       	call   2d30 <rrc_main+0x300>
    2d34:	e8 fc ff ff ff       	call   2d35 <rrc_main+0x305>
    2d39:	83 f8 05             	cmp    $0x5,%eax
    2d3c:	0f 84 5e 04 00 00    	je     31a0 <rrc_main+0x770>
    2d42:	e8 fc ff ff ff       	call   2d43 <rrc_main+0x313>
    2d47:	83 f8 02             	cmp    $0x2,%eax
    2d4a:	0f 84 ff 07 00 00    	je     354f <rrc_main+0xb1f>
    2d50:	e8 fc ff ff ff       	call   2d51 <rrc_main+0x321>
    2d55:	83 f8 01             	cmp    $0x1,%eax
    2d58:	0f 84 01 08 00 00    	je     355f <rrc_main+0xb2f>
    2d5e:	66 90                	xchg   %ax,%ax
    2d60:	e8 cb f5 ff ff       	call   2330 <other_events_handler>
    2d65:	c7 03 04 00 00 00    	movl   $0x4,(%ebx)
    2d6b:	c7 05 5c 00 00 00 5c 	movl   $0x15c,0x5c
    2d72:	01 00 00 
    2d75:	c7 04 24 a8 08 00 00 	movl   $0x8a8,(%esp)
    2d7c:	e8 fc ff ff ff       	call   2d7d <rrc_main+0x34d>
    2d81:	c7 03 05 00 00 00    	movl   $0x5,(%ebx)
    2d87:	8b 5d f4             	mov    -0xc(%ebp),%ebx
    2d8a:	8b 75 f8             	mov    -0x8(%ebp),%esi
    2d8d:	8b 7d fc             	mov    -0x4(%ebp),%edi
    2d90:	89 ec                	mov    %ebp,%esp
    2d92:	5d                   	pop    %ebp
    2d93:	c3                   	ret    
    2d94:	e8 fc ff ff ff       	call   2d95 <rrc_main+0x365>
    2d99:	83 f8 09             	cmp    $0x9,%eax
    2d9c:	0f 85 51 02 00 00    	jne    2ff3 <rrc_main+0x5c3>
    2da2:	83 fe 01             	cmp    $0x1,%esi
    2da5:	0f 85 28 01 00 00    	jne    2ed3 <rrc_main+0x4a3>
    2dab:	c7 44 24 08 95 01 00 	movl   $0x195,0x8(%esp)
    2db2:	00 
    2db3:	c7 44 24 04 ed 01 00 	movl   $0x1ed,0x4(%esp)
    2dba:	00 
    2dbb:	c7 04 24 a9 01 00 00 	movl   $0x1a9,(%esp)
    2dc2:	e8 fc ff ff ff       	call   2dc3 <rrc_main+0x393>
    2dc7:	c7 05 5c 00 00 00 30 	movl   $0xe30,0x5c
    2dce:	0e 00 00 
    2dd1:	c7 04 24 5c 0e 00 00 	movl   $0xe5c,(%esp)
    2dd8:	e8 fc ff ff ff       	call   2dd9 <rrc_main+0x3a9>
    2ddd:	e8 fc ff ff ff       	call   2dde <rrc_main+0x3ae>
    2de2:	83 f8 05             	cmp    $0x5,%eax
    2de5:	0f 84 bf 07 00 00    	je     35aa <rrc_main+0xb7a>
    2deb:	90                   	nop
    2dec:	8d 74 26 00          	lea    0x0(%esi,%eiz,1),%esi
    2df0:	e8 fc ff ff ff       	call   2df1 <rrc_main+0x3c1>
    2df5:	83 f8 02             	cmp    $0x2,%eax
    2df8:	0f 84 e1 07 00 00    	je     35df <rrc_main+0xbaf>
    2dfe:	66 90                	xchg   %ax,%ax
    2e00:	e8 fc ff ff ff       	call   2e01 <rrc_main+0x3d1>
    2e05:	83 f8 01             	cmp    $0x1,%eax
    2e08:	0f 84 21 08 00 00    	je     362f <rrc_main+0xbff>
    2e0e:	66 90                	xchg   %ax,%ax
    2e10:	e8 1b f5 ff ff       	call   2330 <other_events_handler>
    2e15:	c7 03 0c 00 00 00    	movl   $0xc,(%ebx)
    2e1b:	c7 05 5c 00 00 00 ed 	movl   $0x1ed,0x5c
    2e22:	01 00 00 
    2e25:	c7 04 24 3c 0d 00 00 	movl   $0xd3c,(%esp)
    2e2c:	e8 fc ff ff ff       	call   2e2d <rrc_main+0x3fd>
    2e31:	a1 8c 03 00 00       	mov    0x38c,%eax
    2e36:	85 c0                	test   %eax,%eax
    2e38:	75 16                	jne    2e50 <rrc_main+0x420>
    2e3a:	ba 08 00 00 00       	mov    $0x8,%edx
    2e3f:	b8 64 00 00 00       	mov    $0x64,%eax
    2e44:	e8 fc ff ff ff       	call   2e45 <rrc_main+0x415>
    2e49:	83 05 8c 03 00 00 01 	addl   $0x1,0x38c
    2e50:	c7 03 0d 00 00 00    	movl   $0xd,(%ebx)
    2e56:	e9 fd fb ff ff       	jmp    2a58 <rrc_main+0x28>
    2e5b:	90                   	nop
    2e5c:	8d 74 26 00          	lea    0x0(%esi,%eiz,1),%esi
    2e60:	c7 05 5c 00 00 00 01 	movl   $0x201,0x5c
    2e67:	02 00 00 
    2e6a:	31 f6                	xor    %esi,%esi
    2e6c:	bf ff ff ff ff       	mov    $0xffffffff,%edi
    2e71:	e8 fc ff ff ff       	call   2e72 <rrc_main+0x442>
    2e76:	83 f8 03             	cmp    $0x3,%eax
    2e79:	0f 84 02 05 00 00    	je     3381 <rrc_main+0x951>
    2e7f:	e8 fc ff ff ff       	call   2e80 <rrc_main+0x450>
    2e84:	83 f8 03             	cmp    $0x3,%eax
    2e87:	0f 84 d9 04 00 00    	je     3366 <rrc_main+0x936>
    2e8d:	8d 76 00             	lea    0x0(%esi),%esi
    2e90:	e8 fc ff ff ff       	call   2e91 <rrc_main+0x461>
    2e95:	83 f8 03             	cmp    $0x3,%eax
    2e98:	0f 84 ad 04 00 00    	je     334b <rrc_main+0x91b>
    2e9e:	66 90                	xchg   %ax,%ax
    2ea0:	e8 fc ff ff ff       	call   2ea1 <rrc_main+0x471>
    2ea5:	83 f8 03             	cmp    $0x3,%eax
    2ea8:	0f 84 7c 04 00 00    	je     332a <rrc_main+0x8fa>
    2eae:	83 fe 01             	cmp    $0x1,%esi
    2eb1:	0f 8e b9 02 00 00    	jle    3170 <rrc_main+0x740>
    2eb7:	c7 44 24 08 95 01 00 	movl   $0x195,0x8(%esp)
    2ebe:	00 
    2ebf:	c7 44 24 04 01 02 00 	movl   $0x201,0x4(%esp)
    2ec6:	00 
    2ec7:	c7 04 24 a9 01 00 00 	movl   $0x1a9,(%esp)
    2ece:	e8 fc ff ff ff       	call   2ecf <rrc_main+0x49f>
    2ed3:	c7 05 5c 00 00 00 01 	movl   $0x201,0x5c
    2eda:	02 00 00 
    2edd:	c7 03 0f 00 00 00    	movl   $0xf,(%ebx)
    2ee3:	e9 70 fb ff ff       	jmp    2a58 <rrc_main+0x28>
    2ee8:	c7 05 5c 00 00 00 4b 	movl   $0x14b,0x5c
    2eef:	01 00 00 
    2ef2:	c7 04 24 e8 07 00 00 	movl   $0x7e8,(%esp)
    2ef9:	e8 fc ff ff ff       	call   2efa <rrc_main+0x4ca>
    2efe:	e8 fc ff ff ff       	call   2eff <rrc_main+0x4cf>
    2f03:	83 f8 05             	cmp    $0x5,%eax
    2f06:	0f 84 3c 05 00 00    	je     3448 <rrc_main+0xa18>
    2f0c:	8d 74 26 00          	lea    0x0(%esi,%eiz,1),%esi
    2f10:	e8 fc ff ff ff       	call   2f11 <rrc_main+0x4e1>
    2f15:	83 f8 03             	cmp    $0x3,%eax
    2f18:	0f 84 f0 04 00 00    	je     340e <rrc_main+0x9de>
    2f1e:	c7 05 5c 00 00 00 0c 	movl   $0x80c,0x5c
    2f25:	08 00 00 
    2f28:	c7 04 24 34 08 00 00 	movl   $0x834,(%esp)
    2f2f:	e8 fc ff ff ff       	call   2f30 <rrc_main+0x500>
    2f34:	e8 fc ff ff ff       	call   2f35 <rrc_main+0x505>
    2f39:	83 f8 05             	cmp    $0x5,%eax
    2f3c:	0f 84 7e 02 00 00    	je     31c0 <rrc_main+0x790>
    2f42:	e8 fc ff ff ff       	call   2f43 <rrc_main+0x513>
    2f47:	83 f8 02             	cmp    $0x2,%eax
    2f4a:	0f 84 ef 05 00 00    	je     353f <rrc_main+0xb0f>
    2f50:	e8 fc ff ff ff       	call   2f51 <rrc_main+0x521>
    2f55:	83 f8 01             	cmp    $0x1,%eax
    2f58:	0f 84 21 06 00 00    	je     357f <rrc_main+0xb4f>
    2f5e:	66 90                	xchg   %ax,%ax
    2f60:	e8 cb f3 ff ff       	call   2330 <other_events_handler>
    2f65:	c7 03 02 00 00 00    	movl   $0x2,(%ebx)
    2f6b:	c7 05 5c 00 00 00 4b 	movl   $0x14b,0x5c
    2f72:	01 00 00 
    2f75:	c7 04 24 c4 07 00 00 	movl   $0x7c4,(%esp)
    2f7c:	e8 fc ff ff ff       	call   2f7d <rrc_main+0x54d>
    2f81:	8b 15 88 03 00 00    	mov    0x388,%edx
    2f87:	85 d2                	test   %edx,%edx
    2f89:	75 10                	jne    2f9b <rrc_main+0x56b>
    2f8b:	31 d2                	xor    %edx,%edx
    2f8d:	31 c0                	xor    %eax,%eax
    2f8f:	e8 fc ff ff ff       	call   2f90 <rrc_main+0x560>
    2f94:	83 05 88 03 00 00 01 	addl   $0x1,0x388
    2f9b:	c7 03 03 00 00 00    	movl   $0x3,(%ebx)
    2fa1:	e9 b2 fa ff ff       	jmp    2a58 <rrc_main+0x28>
    2fa6:	66 90                	xchg   %ax,%ax
    2fa8:	c7 05 5c 00 00 00 ed 	movl   $0x1ed,0x5c
    2faf:	01 00 00 
    2fb2:	c7 04 24 64 0d 00 00 	movl   $0xd64,(%esp)
    2fb9:	e8 fc ff ff ff       	call   2fba <rrc_main+0x58a>
    2fbe:	e8 fc ff ff ff       	call   2fbf <rrc_main+0x58f>
    2fc3:	83 f8 05             	cmp    $0x5,%eax
    2fc6:	0f 84 0f 04 00 00    	je     33db <rrc_main+0x9ab>
    2fcc:	8d 74 26 00          	lea    0x0(%esi,%eiz,1),%esi
    2fd0:	e8 fc ff ff ff       	call   2fd1 <rrc_main+0x5a1>
    2fd5:	31 f6                	xor    %esi,%esi
    2fd7:	bf ff ff ff ff       	mov    $0xffffffff,%edi
    2fdc:	83 f8 03             	cmp    $0x3,%eax
    2fdf:	0f 84 dd 03 00 00    	je     33c2 <rrc_main+0x992>
    2fe5:	e8 fc ff ff ff       	call   2fe6 <rrc_main+0x5b6>
    2fea:	83 f8 03             	cmp    $0x3,%eax
    2fed:	0f 84 a1 fd ff ff    	je     2d94 <rrc_main+0x364>
    2ff3:	85 f6                	test   %esi,%esi
    2ff5:	0f 84 cc fd ff ff    	je     2dc7 <rrc_main+0x397>
    2ffb:	85 ff                	test   %edi,%edi
    2ffd:	8d 76 00             	lea    0x0(%esi),%esi
    3000:	0f 84 fa 01 00 00    	je     3200 <rrc_main+0x7d0>
    3006:	83 ff 01             	cmp    $0x1,%edi
    3009:	0f 85 b8 fd ff ff    	jne    2dc7 <rrc_main+0x397>
    300f:	90                   	nop
    3010:	e9 be fe ff ff       	jmp    2ed3 <rrc_main+0x4a3>
    3015:	8d 76 00             	lea    0x0(%esi),%esi
    3018:	c7 05 5c 00 00 00 71 	movl   $0x171,0x5c
    301f:	01 00 00 
    3022:	c7 04 24 c4 09 00 00 	movl   $0x9c4,(%esp)
    3029:	e8 fc ff ff ff       	call   302a <rrc_main+0x5fa>
    302e:	e8 fc ff ff ff       	call   302f <rrc_main+0x5ff>
    3033:	83 f8 05             	cmp    $0x5,%eax
    3036:	0f 84 b9 02 00 00    	je     32f5 <rrc_main+0x8c5>
    303c:	8d 74 26 00          	lea    0x0(%esi,%eiz,1),%esi
    3040:	e8 fc ff ff ff       	call   3041 <rrc_main+0x611>
    3045:	83 f8 03             	cmp    $0x3,%eax
    3048:	0f 84 4c 03 00 00    	je     339a <rrc_main+0x96a>
    304e:	c7 05 5c 00 00 00 e8 	movl   $0x9e8,0x5c
    3055:	09 00 00 
    3058:	c7 04 24 10 0a 00 00 	movl   $0xa10,(%esp)
    305f:	e8 fc ff ff ff       	call   3060 <rrc_main+0x630>
    3064:	e8 fc ff ff ff       	call   3065 <rrc_main+0x635>
    3069:	83 f8 05             	cmp    $0x5,%eax
    306c:	0f 84 6e 01 00 00    	je     31e0 <rrc_main+0x7b0>
    3072:	e8 fc ff ff ff       	call   3073 <rrc_main+0x643>
    3077:	83 f8 02             	cmp    $0x2,%eax
    307a:	0f 84 af 04 00 00    	je     352f <rrc_main+0xaff>
    3080:	e8 fc ff ff ff       	call   3081 <rrc_main+0x651>
    3085:	83 f8 01             	cmp    $0x1,%eax
    3088:	0f 84 e1 04 00 00    	je     356f <rrc_main+0xb3f>
    308e:	66 90                	xchg   %ax,%ax
    3090:	e8 9b f2 ff ff       	call   2330 <other_events_handler>
    3095:	c7 03 06 00 00 00    	movl   $0x6,(%ebx)
    309b:	e9 38 fb ff ff       	jmp    2bd8 <rrc_main+0x1a8>
    30a0:	c7 05 5c 00 00 00 d7 	movl   $0x1d7,0x5c
    30a7:	01 00 00 
    30aa:	c7 04 24 ac 0b 00 00 	movl   $0xbac,(%esp)
    30b1:	e8 fc ff ff ff       	call   30b2 <rrc_main+0x682>
    30b6:	e8 fc ff ff ff       	call   30b7 <rrc_main+0x687>
    30bb:	83 f8 05             	cmp    $0x5,%eax
    30be:	0f 84 49 02 00 00    	je     330d <rrc_main+0x8dd>
    30c4:	e8 fc ff ff ff       	call   30c5 <rrc_main+0x695>
    30c9:	31 f6                	xor    %esi,%esi
    30cb:	bf ff ff ff ff       	mov    $0xffffffff,%edi
    30d0:	83 f8 03             	cmp    $0x3,%eax
    30d3:	0f 84 1c 03 00 00    	je     33f5 <rrc_main+0x9c5>
    30d9:	e8 fc ff ff ff       	call   30da <rrc_main+0x6aa>
    30de:	83 f8 03             	cmp    $0x3,%eax
    30e1:	0f 84 1a fb ff ff    	je     2c01 <rrc_main+0x1d1>
    30e7:	85 f6                	test   %esi,%esi
    30e9:	0f 84 45 fb ff ff    	je     2c34 <rrc_main+0x204>
    30ef:	85 ff                	test   %edi,%edi
    30f1:	0f 84 59 01 00 00    	je     3250 <rrc_main+0x820>
    30f7:	83 ff 01             	cmp    $0x1,%edi
    30fa:	0f 85 34 fb ff ff    	jne    2c34 <rrc_main+0x204>
    3100:	c7 05 5c 00 00 00 8c 	movl   $0xc8c,0x5c
    3107:	0c 00 00 
    310a:	c7 04 24 b8 0c 00 00 	movl   $0xcb8,(%esp)
    3111:	e8 fc ff ff ff       	call   3112 <rrc_main+0x6e2>
    3116:	a1 00 00 00 00       	mov    0x0,%eax
    311b:	e8 fc ff ff ff       	call   311c <rrc_main+0x6ec>
    3120:	a1 00 00 00 00       	mov    0x0,%eax
    3125:	e8 fc ff ff ff       	call   3126 <rrc_main+0x6f6>
    312a:	31 c9                	xor    %ecx,%ecx
    312c:	ba 03 00 00 00       	mov    $0x3,%edx
    3131:	b8 01 00 00 00       	mov    $0x1,%eax
    3136:	c7 04 24 00 00 00 00 	movl   $0x0,(%esp)
    313d:	e8 fc ff ff ff       	call   313e <rrc_main+0x70e>
    3142:	e8 fc ff ff ff       	call   3143 <rrc_main+0x713>
    3147:	e8 fc ff ff ff       	call   3148 <rrc_main+0x718>
    314c:	a1 00 00 00 00       	mov    0x0,%eax
    3151:	e8 fc ff ff ff       	call   3152 <rrc_main+0x722>
    3156:	c7 05 00 00 00 00 00 	movl   $0x0,0x0
    315d:	00 00 00 
    3160:	c7 03 06 00 00 00    	movl   $0x6,(%ebx)
    3166:	e9 6d fa ff ff       	jmp    2bd8 <rrc_main+0x1a8>
    316b:	90                   	nop
    316c:	8d 74 26 00          	lea    0x0(%esi,%eiz,1),%esi
    3170:	85 f6                	test   %esi,%esi
    3172:	0f 84 5b fd ff ff    	je     2ed3 <rrc_main+0x4a3>
    3178:	83 ff 01             	cmp    $0x1,%edi
    317b:	0f 84 14 ff ff ff    	je     3095 <rrc_main+0x665>
    3181:	0f 8e ee 04 00 00    	jle    3675 <rrc_main+0xc45>
    3187:	83 ff 02             	cmp    $0x2,%edi
    318a:	0f 84 05 ff ff ff    	je     3095 <rrc_main+0x665>
    3190:	83 ff 03             	cmp    $0x3,%edi
    3193:	0f 85 3a fd ff ff    	jne    2ed3 <rrc_main+0x4a3>
    3199:	e9 f7 fe ff ff       	jmp    3095 <rrc_main+0x665>
    319e:	66 90                	xchg   %ax,%ax
    31a0:	e8 fc ff ff ff       	call   31a1 <rrc_main+0x771>
    31a5:	83 f8 02             	cmp    $0x2,%eax
    31a8:	0f 85 94 fb ff ff    	jne    2d42 <rrc_main+0x312>
    31ae:	66 90                	xchg   %ax,%ax
    31b0:	e8 eb f6 ff ff       	call   28a0 <rrc_ioctl_handler>
    31b5:	e9 ab fb ff ff       	jmp    2d65 <rrc_main+0x335>
    31ba:	8d b6 00 00 00 00    	lea    0x0(%esi),%esi
    31c0:	e8 fc ff ff ff       	call   31c1 <rrc_main+0x791>
    31c5:	83 f8 02             	cmp    $0x2,%eax
    31c8:	0f 85 74 fd ff ff    	jne    2f42 <rrc_main+0x512>
    31ce:	66 90                	xchg   %ax,%ax
    31d0:	e8 cb f6 ff ff       	call   28a0 <rrc_ioctl_handler>
    31d5:	e9 8b fd ff ff       	jmp    2f65 <rrc_main+0x535>
    31da:	8d b6 00 00 00 00    	lea    0x0(%esi),%esi
    31e0:	e8 fc ff ff ff       	call   31e1 <rrc_main+0x7b1>
    31e5:	83 f8 02             	cmp    $0x2,%eax
    31e8:	0f 85 84 fe ff ff    	jne    3072 <rrc_main+0x642>
    31ee:	66 90                	xchg   %ax,%ax
    31f0:	e8 ab f6 ff ff       	call   28a0 <rrc_ioctl_handler>
    31f5:	e9 9b fe ff ff       	jmp    3095 <rrc_main+0x665>
    31fa:	8d b6 00 00 00 00    	lea    0x0(%esi),%esi
    3200:	c7 05 5c 00 00 00 8c 	movl   $0xd8c,0x5c
    3207:	0d 00 00 
    320a:	c7 04 24 bc 0d 00 00 	movl   $0xdbc,(%esp)
    3211:	e8 fc ff ff ff       	call   3212 <rrc_main+0x7e2>
    3216:	a1 00 00 00 00       	mov    0x0,%eax
    321b:	85 c0                	test   %eax,%eax
    321d:	0f 84 1c 04 00 00    	je     363f <rrc_main+0xc0f>
    3223:	0f b6 00             	movzbl (%eax),%eax
    3226:	e8 fc ff ff ff       	call   3227 <rrc_main+0x7f7>
    322b:	a1 00 00 00 00       	mov    0x0,%eax
    3230:	e8 fc ff ff ff       	call   3231 <rrc_main+0x801>
    3235:	c7 05 00 00 00 00 00 	movl   $0x0,0x0
    323c:	00 00 00 
    323f:	c7 04 24 10 0e 00 00 	movl   $0xe10,(%esp)
    3246:	e8 fc ff ff ff       	call   3247 <rrc_main+0x817>
    324b:	e9 2b fa ff ff       	jmp    2c7b <rrc_main+0x24b>
    3250:	c7 05 5c 00 00 00 d4 	movl   $0xbd4,0x5c
    3257:	0b 00 00 
    325a:	c7 04 24 04 0c 00 00 	movl   $0xc04,(%esp)
    3261:	e8 fc ff ff ff       	call   3262 <rrc_main+0x832>
    3266:	c7 04 24 28 0c 00 00 	movl   $0xc28,(%esp)
    326d:	e8 fc ff ff ff       	call   326e <rrc_main+0x83e>
    3272:	a1 00 00 00 00       	mov    0x0,%eax
    3277:	85 c0                	test   %eax,%eax
    3279:	0f 84 d1 03 00 00    	je     3650 <rrc_main+0xc20>
    327f:	e8 fc ff ff ff       	call   3280 <rrc_main+0x850>
    3284:	e9 8c fb ff ff       	jmp    2e15 <rrc_main+0x3e5>
    3289:	c7 05 5c 00 00 00 00 	movl   $0xb00,0x5c
    3290:	0b 00 00 
    3293:	e8 08 f5 ff ff       	call   27a0 <rcv_rrc_conn_setup>
    3298:	c7 03 0a 00 00 00    	movl   $0xa,(%ebx)
    329e:	e9 de f9 ff ff       	jmp    2c81 <rrc_main+0x251>
    32a3:	c7 05 5c 00 00 00 b4 	movl   $0xab4,0x5c
    32aa:	0a 00 00 
    32ad:	c7 04 24 dc 0a 00 00 	movl   $0xadc,(%esp)
    32b4:	e8 fc ff ff ff       	call   32b5 <rrc_main+0x885>
    32b9:	b8 2c 01 00 00       	mov    $0x12c,%eax
    32be:	e8 fc ff ff ff       	call   32bf <rrc_main+0x88f>
    32c3:	31 c9                	xor    %ecx,%ecx
    32c5:	ba 03 00 00 00       	mov    $0x3,%edx
    32ca:	b8 01 00 00 00       	mov    $0x1,%eax
    32cf:	c7 04 24 00 00 00 00 	movl   $0x0,(%esp)
    32d6:	e8 fc ff ff ff       	call   32d7 <rrc_main+0x8a7>
    32db:	ba d0 07 00 00       	mov    $0x7d0,%edx
    32e0:	b8 2e 01 00 00       	mov    $0x12e,%eax
    32e5:	e8 fc ff ff ff       	call   32e6 <rrc_main+0x8b6>
    32ea:	c7 03 06 00 00 00    	movl   $0x6,(%ebx)
    32f0:	e9 e3 f8 ff ff       	jmp    2bd8 <rrc_main+0x1a8>
    32f5:	e8 fc ff ff ff       	call   32f6 <rrc_main+0x8c6>
    32fa:	83 f8 01             	cmp    $0x1,%eax
    32fd:	0f 85 39 fd ff ff    	jne    303c <rrc_main+0x60c>
    3303:	e8 fc ff ff ff       	call   3304 <rrc_main+0x8d4>
    3308:	e9 2f fd ff ff       	jmp    303c <rrc_main+0x60c>
    330d:	8d 76 00             	lea    0x0(%esi),%esi
    3310:	e8 fc ff ff ff       	call   3311 <rrc_main+0x8e1>
    3315:	83 f8 01             	cmp    $0x1,%eax
    3318:	0f 85 a6 fd ff ff    	jne    30c4 <rrc_main+0x694>
    331e:	66 90                	xchg   %ax,%ax
    3320:	e8 fc ff ff ff       	call   3321 <rrc_main+0x8f1>
    3325:	e9 9a fd ff ff       	jmp    30c4 <rrc_main+0x694>
    332a:	8d b6 00 00 00 00    	lea    0x0(%esi),%esi
    3330:	e8 fc ff ff ff       	call   3331 <rrc_main+0x901>
    3335:	83 f8 0d             	cmp    $0xd,%eax
    3338:	0f 85 70 fb ff ff    	jne    2eae <rrc_main+0x47e>
    333e:	83 c6 01             	add    $0x1,%esi
    3341:	bf 03 00 00 00       	mov    $0x3,%edi
    3346:	e9 63 fb ff ff       	jmp    2eae <rrc_main+0x47e>
    334b:	e8 fc ff ff ff       	call   334c <rrc_main+0x91c>
    3350:	83 f8 0c             	cmp    $0xc,%eax
    3353:	0f 85 45 fb ff ff    	jne    2e9e <rrc_main+0x46e>
    3359:	83 c6 01             	add    $0x1,%esi
    335c:	bf 02 00 00 00       	mov    $0x2,%edi
    3361:	e9 38 fb ff ff       	jmp    2e9e <rrc_main+0x46e>
    3366:	e8 fc ff ff ff       	call   3367 <rrc_main+0x937>
    336b:	83 f8 0b             	cmp    $0xb,%eax
    336e:	0f 85 19 fb ff ff    	jne    2e8d <rrc_main+0x45d>
    3374:	83 c6 01             	add    $0x1,%esi
    3377:	bf 01 00 00 00       	mov    $0x1,%edi
    337c:	e9 0c fb ff ff       	jmp    2e8d <rrc_main+0x45d>
    3381:	e8 fc ff ff ff       	call   3382 <rrc_main+0x952>
    3386:	83 f8 0a             	cmp    $0xa,%eax
    3389:	0f 94 c0             	sete   %al
    338c:	0f b6 f8             	movzbl %al,%edi
    338f:	0f b6 f0             	movzbl %al,%esi
    3392:	83 ef 01             	sub    $0x1,%edi
    3395:	e9 e5 fa ff ff       	jmp    2e7f <rrc_main+0x44f>
    339a:	e8 fc ff ff ff       	call   339b <rrc_main+0x96b>
    339f:	83 f8 02             	cmp    $0x2,%eax
    33a2:	0f 85 a6 fc ff ff    	jne    304e <rrc_main+0x61e>
    33a8:	c7 05 5c 00 00 00 38 	movl   $0xa38,0x5c
    33af:	0a 00 00 
    33b2:	e8 d9 f2 ff ff       	call   2690 <transit_to_idle_connecting>
    33b7:	c7 03 08 00 00 00    	movl   $0x8,(%ebx)
    33bd:	e9 86 f7 ff ff       	jmp    2b48 <rrc_main+0x118>
    33c2:	e8 fc ff ff ff       	call   33c3 <rrc_main+0x993>
    33c7:	83 f8 08             	cmp    $0x8,%eax
    33ca:	0f 94 c0             	sete   %al
    33cd:	0f b6 f8             	movzbl %al,%edi
    33d0:	0f b6 f0             	movzbl %al,%esi
    33d3:	83 ef 01             	sub    $0x1,%edi
    33d6:	e9 0a fc ff ff       	jmp    2fe5 <rrc_main+0x5b5>
    33db:	e8 fc ff ff ff       	call   33dc <rrc_main+0x9ac>
    33e0:	83 f8 01             	cmp    $0x1,%eax
    33e3:	0f 85 e3 fb ff ff    	jne    2fcc <rrc_main+0x59c>
    33e9:	e8 fc ff ff ff       	call   33ea <rrc_main+0x9ba>
    33ee:	66 90                	xchg   %ax,%ax
    33f0:	e9 d7 fb ff ff       	jmp    2fcc <rrc_main+0x59c>
    33f5:	e8 fc ff ff ff       	call   33f6 <rrc_main+0x9c6>
    33fa:	83 f8 06             	cmp    $0x6,%eax
    33fd:	0f 94 c0             	sete   %al
    3400:	0f b6 f8             	movzbl %al,%edi
    3403:	0f b6 f0             	movzbl %al,%esi
    3406:	83 ef 01             	sub    $0x1,%edi
    3409:	e9 cb fc ff ff       	jmp    30d9 <rrc_main+0x6a9>
    340e:	e8 fc ff ff ff       	call   340f <rrc_main+0x9df>
    3413:	85 c0                	test   %eax,%eax
    3415:	0f 85 03 fb ff ff    	jne    2f1e <rrc_main+0x4ee>
    341b:	c7 05 5c 00 00 00 58 	movl   $0x858,0x5c
    3422:	08 00 00 
    3425:	c7 04 24 84 08 00 00 	movl   $0x884,(%esp)
    342c:	e8 fc ff ff ff       	call   342d <rrc_main+0x9fd>
    3431:	ba 01 00 00 00       	mov    $0x1,%edx
    3436:	31 c0                	xor    %eax,%eax
    3438:	e8 fc ff ff ff       	call   3439 <rrc_main+0xa09>
    343d:	c7 03 04 00 00 00    	movl   $0x4,(%ebx)
    3443:	e9 23 f9 ff ff       	jmp    2d6b <rrc_main+0x33b>
    3448:	e8 fc ff ff ff       	call   3449 <rrc_main+0xa19>
    344d:	83 f8 01             	cmp    $0x1,%eax
    3450:	0f 85 b6 fa ff ff    	jne    2f0c <rrc_main+0x4dc>
    3456:	e8 fc ff ff ff       	call   3457 <rrc_main+0xa27>
    345b:	90                   	nop
    345c:	8d 74 26 00          	lea    0x0(%esi,%eiz,1),%esi
    3460:	e9 a7 fa ff ff       	jmp    2f0c <rrc_main+0x4dc>
    3465:	e8 fc ff ff ff       	call   3466 <rrc_main+0xa36>
    346a:	83 f8 05             	cmp    $0x5,%eax
    346d:	8d 76 00             	lea    0x0(%esi),%esi
    3470:	0f 85 5b f6 ff ff    	jne    2ad1 <rrc_main+0xa1>
    3476:	83 c6 01             	add    $0x1,%esi
    3479:	bf 02 00 00 00       	mov    $0x2,%edi
    347e:	e9 4e f6 ff ff       	jmp    2ad1 <rrc_main+0xa1>
    3483:	e8 fc ff ff ff       	call   3484 <rrc_main+0xa54>
    3488:	83 f8 04             	cmp    $0x4,%eax
    348b:	0f 85 32 f6 ff ff    	jne    2ac3 <rrc_main+0x93>
    3491:	83 c6 01             	add    $0x1,%esi
    3494:	bf 01 00 00 00       	mov    $0x1,%edi
    3499:	e9 25 f6 ff ff       	jmp    2ac3 <rrc_main+0x93>
    349e:	e8 fc ff ff ff       	call   349f <rrc_main+0xa6f>
    34a3:	83 f8 03             	cmp    $0x3,%eax
    34a6:	0f 94 c0             	sete   %al
    34a9:	0f b6 f8             	movzbl %al,%edi
    34ac:	0f b6 f0             	movzbl %al,%esi
    34af:	83 ef 01             	sub    $0x1,%edi
    34b2:	e9 fe f5 ff ff       	jmp    2ab5 <rrc_main+0x85>
    34b7:	e8 fc ff ff ff       	call   34b8 <rrc_main+0xa88>
    34bc:	83 f8 01             	cmp    $0x1,%eax
    34bf:	0f 85 d7 f5 ff ff    	jne    2a9c <rrc_main+0x6c>
    34c5:	e8 fc ff ff ff       	call   34c6 <rrc_main+0xa96>
    34ca:	e9 cd f5 ff ff       	jmp    2a9c <rrc_main+0x6c>
    34cf:	90                   	nop
    34d0:	e8 fc ff ff ff       	call   34d1 <rrc_main+0xaa1>
    34d5:	83 f8 01             	cmp    $0x1,%eax
    34d8:	0f 85 40 f8 ff ff    	jne    2d1e <rrc_main+0x2ee>
    34de:	c7 05 5c 00 00 00 50 	movl   $0x950,0x5c
    34e5:	09 00 00 
    34e8:	c7 04 24 7c 09 00 00 	movl   $0x97c,(%esp)
    34ef:	e8 fc ff ff ff       	call   34f0 <rrc_main+0xac0>
    34f4:	31 c9                	xor    %ecx,%ecx
    34f6:	ba 45 00 00 00       	mov    $0x45,%edx
    34fb:	b8 01 00 00 00       	mov    $0x1,%eax
    3500:	c7 04 24 00 00 00 00 	movl   $0x0,(%esp)
    3507:	e8 fc ff ff ff       	call   3508 <rrc_main+0xad8>
    350c:	c7 03 06 00 00 00    	movl   $0x6,(%ebx)
    3512:	e9 c1 f6 ff ff       	jmp    2bd8 <rrc_main+0x1a8>
    3517:	e8 fc ff ff ff       	call   3518 <rrc_main+0xae8>
    351c:	83 f8 01             	cmp    $0x1,%eax
    351f:	0f 85 e7 f7 ff ff    	jne    2d0c <rrc_main+0x2dc>
    3525:	e8 fc ff ff ff       	call   3526 <rrc_main+0xaf6>
    352a:	e9 dd f7 ff ff       	jmp    2d0c <rrc_main+0x2dc>
    352f:	90                   	nop
    3530:	e8 fc ff ff ff       	call   3531 <rrc_main+0xb01>
    3535:	e8 46 ea ff ff       	call   1f80 <rrc_messege_handler_rlc>
    353a:	e9 56 fb ff ff       	jmp    3095 <rrc_main+0x665>
    353f:	90                   	nop
    3540:	e8 fc ff ff ff       	call   3541 <rrc_main+0xb11>
    3545:	e8 36 ea ff ff       	call   1f80 <rrc_messege_handler_rlc>
    354a:	e9 16 fa ff ff       	jmp    2f65 <rrc_main+0x535>
    354f:	90                   	nop
    3550:	e8 fc ff ff ff       	call   3551 <rrc_main+0xb21>
    3555:	e8 26 ea ff ff       	call   1f80 <rrc_messege_handler_rlc>
    355a:	e9 06 f8 ff ff       	jmp    2d65 <rrc_main+0x335>
    355f:	90                   	nop
    3560:	e8 fc ff ff ff       	call   3561 <rrc_main+0xb31>
    3565:	e8 96 ed ff ff       	call   2300 <rrc_messege_handler_upper>
    356a:	e9 f6 f7 ff ff       	jmp    2d65 <rrc_main+0x335>
    356f:	90                   	nop
    3570:	e8 fc ff ff ff       	call   3571 <rrc_main+0xb41>
    3575:	e8 86 ed ff ff       	call   2300 <rrc_messege_handler_upper>
    357a:	e9 16 fb ff ff       	jmp    3095 <rrc_main+0x665>
    357f:	90                   	nop
    3580:	e8 fc ff ff ff       	call   3581 <rrc_main+0xb51>
    3585:	e8 76 ed ff ff       	call   2300 <rrc_messege_handler_upper>
    358a:	e9 d6 f9 ff ff       	jmp    2f65 <rrc_main+0x535>
    358f:	90                   	nop
    3590:	e8 fc ff ff ff       	call   3591 <rrc_main+0xb61>
    3595:	83 f8 02             	cmp    $0x2,%eax
    3598:	0f 85 ba f6 ff ff    	jne    2c58 <rrc_main+0x228>
    359e:	66 90                	xchg   %ax,%ax
    35a0:	e8 fb f2 ff ff       	call   28a0 <rrc_ioctl_handler>
    35a5:	e9 d1 f6 ff ff       	jmp    2c7b <rrc_main+0x24b>
    35aa:	8d b6 00 00 00 00    	lea    0x0(%esi),%esi
    35b0:	e8 fc ff ff ff       	call   35b1 <rrc_main+0xb81>
    35b5:	83 f8 02             	cmp    $0x2,%eax
    35b8:	0f 85 2d f8 ff ff    	jne    2deb <rrc_main+0x3bb>
    35be:	66 90                	xchg   %ax,%ax
    35c0:	e8 db f2 ff ff       	call   28a0 <rrc_ioctl_handler>
    35c5:	e9 4b f8 ff ff       	jmp    2e15 <rrc_main+0x3e5>
    35ca:	8d b6 00 00 00 00    	lea    0x0(%esi),%esi
    35d0:	e8 fc ff ff ff       	call   35d1 <rrc_main+0xba1>
    35d5:	e8 a6 e9 ff ff       	call   1f80 <rrc_messege_handler_rlc>
    35da:	e9 9c f6 ff ff       	jmp    2c7b <rrc_main+0x24b>
    35df:	90                   	nop
    35e0:	e8 fc ff ff ff       	call   35e1 <rrc_main+0xbb1>
    35e5:	e8 96 e9 ff ff       	call   1f80 <rrc_messege_handler_rlc>
    35ea:	e9 26 f8 ff ff       	jmp    2e15 <rrc_main+0x3e5>
    35ef:	90                   	nop
    35f0:	e8 fc ff ff ff       	call   35f1 <rrc_main+0xbc1>
    35f5:	83 f8 02             	cmp    $0x2,%eax
    35f8:	0f 85 1c f5 ff ff    	jne    2b1a <rrc_main+0xea>
    35fe:	66 90                	xchg   %ax,%ax
    3600:	e8 9b f2 ff ff       	call   28a0 <rrc_ioctl_handler>
    3605:	e9 31 f5 ff ff       	jmp    2b3b <rrc_main+0x10b>
    360a:	8d b6 00 00 00 00    	lea    0x0(%esi),%esi
    3610:	e8 fc ff ff ff       	call   3611 <rrc_main+0xbe1>
    3615:	e8 66 e9 ff ff       	call   1f80 <rrc_messege_handler_rlc>
    361a:	e9 1c f5 ff ff       	jmp    2b3b <rrc_main+0x10b>
    361f:	90                   	nop
    3620:	e8 fc ff ff ff       	call   3621 <rrc_main+0xbf1>
    3625:	e8 d6 ec ff ff       	call   2300 <rrc_messege_handler_upper>
    362a:	e9 4c f6 ff ff       	jmp    2c7b <rrc_main+0x24b>
    362f:	90                   	nop
    3630:	e8 fc ff ff ff       	call   3631 <rrc_main+0xc01>
    3635:	e8 c6 ec ff ff       	call   2300 <rrc_messege_handler_upper>
    363a:	e9 d6 f7 ff ff       	jmp    2e15 <rrc_main+0x3e5>
    363f:	c7 04 24 e0 0d 00 00 	movl   $0xde0,(%esp)
    3646:	e8 fc ff ff ff       	call   3647 <rrc_main+0xc17>
    364b:	e9 ef fb ff ff       	jmp    323f <rrc_main+0x80f>
    3650:	c7 04 24 5c 0c 00 00 	movl   $0xc5c,(%esp)
    3657:	e8 fc ff ff ff       	call   3658 <rrc_main+0xc28>
    365c:	e9 b4 f7 ff ff       	jmp    2e15 <rrc_main+0x3e5>
    3661:	e8 fc ff ff ff       	call   3662 <rrc_main+0xc32>
    3666:	e8 95 ec ff ff       	call   2300 <rrc_messege_handler_upper>
    366b:	90                   	nop
    366c:	8d 74 26 00          	lea    0x0(%esi,%eiz,1),%esi
    3670:	e9 c6 f4 ff ff       	jmp    2b3b <rrc_main+0x10b>
    3675:	85 ff                	test   %edi,%edi
    3677:	0f 84 fe f5 ff ff    	je     2c7b <rrc_main+0x24b>
    367d:	8d 76 00             	lea    0x0(%esi),%esi
    3680:	e9 4e f8 ff ff       	jmp    2ed3 <rrc_main+0x4a3>
    3685:	8d 74 26 00          	lea    0x0(%esi,%eiz,1),%esi
    3689:	8d bc 27 00 00 00 00 	lea    0x0(%edi,%eiz,1),%edi

00003690 <test_recv_pkt_from_rlc>:
    3690:	55                   	push   %ebp
    3691:	89 e5                	mov    %esp,%ebp
    3693:	53                   	push   %ebx
    3694:	83 ec 10             	sub    $0x10,%esp
    3697:	e8 fc ff ff ff       	call   3698 <test_recv_pkt_from_rlc+0x8>
    369c:	b8 14 00 00 00       	mov    $0x14,%eax
    36a1:	c7 45 ec 19 00 00 00 	movl   $0x19,-0x14(%ebp)
    36a8:	c7 45 f0 00 00 00 00 	movl   $0x0,-0x10(%ebp)
    36af:	c7 45 f4 00 00 00 00 	movl   $0x0,-0xc(%ebp)
    36b6:	c6 45 f8 78          	movb   $0x78,-0x8(%ebp)
    36ba:	e8 fc ff ff ff       	call   36bb <test_recv_pkt_from_rlc+0x2b>
    36bf:	ba 10 00 00 00       	mov    $0x10,%edx
    36c4:	89 c3                	mov    %eax,%ebx
    36c6:	e8 fc ff ff ff       	call   36c7 <test_recv_pkt_from_rlc+0x37>
    36cb:	8b 83 ac 00 00 00    	mov    0xac(%ebx),%eax
    36d1:	b9 10 00 00 00       	mov    $0x10,%ecx
    36d6:	8d 55 ec             	lea    -0x14(%ebp),%edx
    36d9:	e8 fc ff ff ff       	call   36da <test_recv_pkt_from_rlc+0x4a>
    36de:	89 d8                	mov    %ebx,%eax
    36e0:	e8 fc ff ff ff       	call   36e1 <test_recv_pkt_from_rlc+0x51>
    36e5:	83 f8 03             	cmp    $0x3,%eax
    36e8:	77 12                	ja     36fc <test_recv_pkt_from_rlc+0x6c>
    36ea:	89 d8                	mov    %ebx,%eax
    36ec:	ba 04 00 00 00       	mov    $0x4,%edx
    36f1:	e8 fc ff ff ff       	call   36f2 <test_recv_pkt_from_rlc+0x62>
    36f6:	85 c0                	test   %eax,%eax
    36f8:	89 c3                	mov    %eax,%ebx
    36fa:	74 1f                	je     371b <test_recv_pkt_from_rlc+0x8b>
    36fc:	ba 04 00 00 00       	mov    $0x4,%edx
    3701:	89 d8                	mov    %ebx,%eax
    3703:	e8 fc ff ff ff       	call   3704 <test_recv_pkt_from_rlc+0x74>
    3708:	8b 83 ac 00 00 00    	mov    0xac(%ebx),%eax
    370e:	c7 00 01 00 00 00    	movl   $0x1,(%eax)
    3714:	89 d8                	mov    %ebx,%eax
    3716:	e8 65 e8 ff ff       	call   1f80 <rrc_messege_handler_rlc>
    371b:	83 c4 10             	add    $0x10,%esp
    371e:	5b                   	pop    %ebx
    371f:	5d                   	pop    %ebp
    3720:	c3                   	ret    
    3721:	eb 0d                	jmp    3730 <test_send_pkt_to_rlc>
    3723:	90                   	nop
    3724:	90                   	nop
    3725:	90                   	nop
    3726:	90                   	nop
    3727:	90                   	nop
    3728:	90                   	nop
    3729:	90                   	nop
    372a:	90                   	nop
    372b:	90                   	nop
    372c:	90                   	nop
    372d:	90                   	nop
    372e:	90                   	nop
    372f:	90                   	nop

00003730 <test_send_pkt_to_rlc>:
    3730:	55                   	push   %ebp
    3731:	89 e5                	mov    %esp,%ebp
    3733:	83 ec 10             	sub    $0x10,%esp
    3736:	e8 fc ff ff ff       	call   3737 <test_send_pkt_to_rlc+0x7>
    373b:	b9 01 00 00 00       	mov    $0x1,%ecx
    3740:	ba 10 00 00 00       	mov    $0x10,%edx
    3745:	8d 45 f0             	lea    -0x10(%ebp),%eax
    3748:	c7 45 f0 19 00 00 00 	movl   $0x19,-0x10(%ebp)
    374f:	c7 45 f4 00 00 00 00 	movl   $0x0,-0xc(%ebp)
    3756:	c7 45 f8 00 00 00 00 	movl   $0x0,-0x8(%ebp)
    375d:	c6 45 fc 78          	movb   $0x78,-0x4(%ebp)
    3761:	e8 fc ff ff ff       	call   3762 <test_send_pkt_to_rlc+0x32>
    3766:	c9                   	leave  
    3767:	c3                   	ret    
    3768:	90                   	nop
    3769:	8d b4 26 00 00 00 00 	lea    0x0(%esi,%eiz,1),%esi

00003770 <test_send_msg_to_us>:
    3770:	55                   	push   %ebp
    3771:	89 e5                	mov    %esp,%ebp
    3773:	83 ec 04             	sub    $0x4,%esp
    3776:	e8 fc ff ff ff       	call   3777 <test_send_msg_to_us+0x7>
    377b:	c7 04 24 88 0e 00 00 	movl   $0xe88,(%esp)
    3782:	e8 fc ff ff ff       	call   3783 <test_send_msg_to_us+0x13>
    3787:	c9                   	leave  
    3788:	c3                   	ret    
    3789:	8d b4 26 00 00 00 00 	lea    0x0(%esi,%eiz,1),%esi

00003790 <test_paging>:
    3790:	55                   	push   %ebp
    3791:	89 e5                	mov    %esp,%ebp
    3793:	e8 fc ff ff ff       	call   3794 <test_paging+0x4>
    3798:	e8 fc ff ff ff       	call   3799 <test_paging+0x9>
    379d:	e8 de e7 ff ff       	call   1f80 <rrc_messege_handler_rlc>
    37a2:	5d                   	pop    %ebp
    37a3:	c3                   	ret    
    37a4:	8d b6 00 00 00 00    	lea    0x0(%esi),%esi
    37aa:	8d bf 00 00 00 00    	lea    0x0(%edi),%edi

000037b0 <test_sib1>:
    37b0:	55                   	push   %ebp
    37b1:	89 e5                	mov    %esp,%ebp
    37b3:	e8 fc ff ff ff       	call   37b4 <test_sib1+0x4>
    37b8:	e8 fc ff ff ff       	call   37b9 <test_sib1+0x9>
    37bd:	e8 be e7 ff ff       	call   1f80 <rrc_messege_handler_rlc>
    37c2:	5d                   	pop    %ebp
    37c3:	c3                   	ret    
    37c4:	8d b6 00 00 00 00    	lea    0x0(%esi),%esi
    37ca:	8d bf 00 00 00 00    	lea    0x0(%edi),%edi

000037d0 <test_mib>:
    37d0:	55                   	push   %ebp
    37d1:	89 e5                	mov    %esp,%ebp
    37d3:	e8 fc ff ff ff       	call   37d4 <test_mib+0x4>
    37d8:	e8 fc ff ff ff       	call   37d9 <test_mib+0x9>
    37dd:	e8 9e e7 ff ff       	call   1f80 <rrc_messege_handler_rlc>
    37e2:	5d                   	pop    %ebp
    37e3:	c3                   	ret    
    37e4:	8d b6 00 00 00 00    	lea    0x0(%esi),%esi
    37ea:	8d bf 00 00 00 00    	lea    0x0(%edi),%edi

000037f0 <test_si>:
    37f0:	55                   	push   %ebp
    37f1:	89 e5                	mov    %esp,%ebp
    37f3:	e8 fc ff ff ff       	call   37f4 <test_si+0x4>
    37f8:	e8 fc ff ff ff       	call   37f9 <test_si+0x9>
    37fd:	e8 7e e7 ff ff       	call   1f80 <rrc_messege_handler_rlc>
    3802:	5d                   	pop    %ebp
    3803:	c3                   	ret    
    3804:	8d b6 00 00 00 00    	lea    0x0(%esi),%esi
    380a:	8d bf 00 00 00 00    	lea    0x0(%edi),%edi

00003810 <test>:
    3810:	55                   	push   %ebp
    3811:	89 e5                	mov    %esp,%ebp
    3813:	53                   	push   %ebx
    3814:	83 ec 1c             	sub    $0x1c,%esp
    3817:	e8 fc ff ff ff       	call   3818 <test+0x8>
    381c:	e8 fc ff ff ff       	call   381d <test+0xd>
    3821:	a1 00 00 00 00       	mov    0x0,%eax
    3826:	85 c0                	test   %eax,%eax
    3828:	0f 84 a2 00 00 00    	je     38d0 <test+0xc0>
    382e:	8b 00                	mov    (%eax),%eax
    3830:	c7 04 24 ac 0e 00 00 	movl   $0xeac,(%esp)
    3837:	89 44 24 04          	mov    %eax,0x4(%esp)
    383b:	e8 fc ff ff ff       	call   383c <test+0x2c>
    3840:	a1 00 00 00 00       	mov    0x0,%eax
    3845:	0f b6 40 0c          	movzbl 0xc(%eax),%eax
    3849:	c7 04 24 d0 0e 00 00 	movl   $0xed0,(%esp)
    3850:	89 44 24 04          	mov    %eax,0x4(%esp)
    3854:	e8 fc ff ff ff       	call   3855 <test+0x45>
    3859:	a1 00 00 00 00       	mov    0x0,%eax
    385e:	e8 fc ff ff ff       	call   385f <test+0x4f>
    3863:	c7 05 00 00 00 00 00 	movl   $0x0,0x0
    386a:	00 00 00 
    386d:	b8 12 00 00 00       	mov    $0x12,%eax
    3872:	66 c7 45 fa 20 00    	movw   $0x20,-0x6(%ebp)
    3878:	c7 45 e8 19 00 00 00 	movl   $0x19,-0x18(%ebp)
    387f:	c6 45 f4 78          	movb   $0x78,-0xc(%ebp)
    3883:	e8 fc ff ff ff       	call   3884 <test+0x74>
    3888:	8d 55 fa             	lea    -0x6(%ebp),%edx
    388b:	b9 02 00 00 00       	mov    $0x2,%ecx
    3890:	89 c3                	mov    %eax,%ebx
    3892:	e8 fc ff ff ff       	call   3893 <test+0x83>
    3897:	8d 55 e8             	lea    -0x18(%ebp),%edx
    389a:	b9 10 00 00 00       	mov    $0x10,%ecx
    389f:	8d 43 02             	lea    0x2(%ebx),%eax
    38a2:	e8 fc ff ff ff       	call   38a3 <test+0x93>
    38a7:	89 d9                	mov    %ebx,%ecx
    38a9:	ba 01 00 00 00       	mov    $0x1,%edx
    38ae:	b8 01 00 00 00       	mov    $0x1,%eax
    38b3:	c7 04 24 12 00 00 00 	movl   $0x12,(%esp)
    38ba:	e8 fc ff ff ff       	call   38bb <test+0xab>
    38bf:	89 d8                	mov    %ebx,%eax
    38c1:	e8 fc ff ff ff       	call   38c2 <test+0xb2>
    38c6:	83 c4 1c             	add    $0x1c,%esp
    38c9:	5b                   	pop    %ebx
    38ca:	5d                   	pop    %ebp
    38cb:	c3                   	ret    
    38cc:	8d 74 26 00          	lea    0x0(%esi,%eiz,1),%esi
    38d0:	c7 04 24 1a 02 00 00 	movl   $0x21a,(%esp)
    38d7:	e8 fc ff ff ff       	call   38d8 <test+0xc8>
    38dc:	eb 8f                	jmp    386d <test+0x5d>
    38de:	90                   	nop
    38df:	90                   	nop

000038e0 <__fsm_dev_set_config>:
    38e0:	55                   	push   %ebp
    38e1:	89 e5                	mov    %esp,%ebp
    38e3:	e8 fc ff ff ff       	call   38e4 <__fsm_dev_set_config+0x4>
    38e8:	31 c0                	xor    %eax,%eax
    38ea:	5d                   	pop    %ebp
    38eb:	c3                   	ret    
    38ec:	8d 74 26 00          	lea    0x0(%esi,%eiz,1),%esi

000038f0 <__fsm_dev_get_stats>:
    38f0:	55                   	push   %ebp
    38f1:	89 e5                	mov    %esp,%ebp
    38f3:	e8 fc ff ff ff       	call   38f4 <__fsm_dev_get_stats+0x4>
    38f8:	5d                   	pop    %ebp
    38f9:	05 c0 04 00 00       	add    $0x4c0,%eax
    38fe:	c3                   	ret    
    38ff:	90                   	nop

00003900 <__fsm_dev_tx_timeout>:
    3900:	55                   	push   %ebp
    3901:	89 e5                	mov    %esp,%ebp
    3903:	e8 fc ff ff ff       	call   3904 <__fsm_dev_tx_timeout+0x4>
    3908:	5d                   	pop    %ebp
    3909:	c3                   	ret    
    390a:	8d b6 00 00 00 00    	lea    0x0(%esi),%esi

00003910 <__fsm_dev_ioctl>:
    3910:	55                   	push   %ebp
    3911:	89 e5                	mov    %esp,%ebp
    3913:	e8 fc ff ff ff       	call   3914 <__fsm_dev_ioctl+0x4>
    3918:	89 d0                	mov    %edx,%eax
    391a:	89 ca                	mov    %ecx,%edx
    391c:	e8 fc ff ff ff       	call   391d <__fsm_dev_ioctl+0xd>
    3921:	31 c0                	xor    %eax,%eax
    3923:	5d                   	pop    %ebp
    3924:	c3                   	ret    
    3925:	8d 74 26 00          	lea    0x0(%esi,%eiz,1),%esi
    3929:	8d bc 27 00 00 00 00 	lea    0x0(%edi,%eiz,1),%edi

00003930 <__fsm_dev_tx>:
    3930:	55                   	push   %ebp
    3931:	89 e5                	mov    %esp,%ebp
    3933:	e8 fc ff ff ff       	call   3934 <__fsm_dev_tx+0x4>
    3938:	31 d2                	xor    %edx,%edx
    393a:	e8 fc ff ff ff       	call   393b <__fsm_dev_tx+0xb>
    393f:	31 c0                	xor    %eax,%eax
    3941:	5d                   	pop    %ebp
    3942:	c3                   	ret    
    3943:	8d b6 00 00 00 00    	lea    0x0(%esi),%esi
    3949:	8d bc 27 00 00 00 00 	lea    0x0(%edi,%eiz,1),%edi

00003950 <__fsm_dev_recv>:
    3950:	55                   	push   %ebp
    3951:	89 e5                	mov    %esp,%ebp
    3953:	e8 fc ff ff ff       	call   3954 <__fsm_dev_recv+0x4>
    3958:	ba 01 00 00 00       	mov    $0x1,%edx
    395d:	e8 fc ff ff ff       	call   395e <__fsm_dev_recv+0xe>
    3962:	31 c0                	xor    %eax,%eax
    3964:	5d                   	pop    %ebp
    3965:	c3                   	ret    
    3966:	8d 76 00             	lea    0x0(%esi),%esi
    3969:	8d bc 27 00 00 00 00 	lea    0x0(%edi,%eiz,1),%edi

00003970 <__fsm_dev_open>:
    3970:	55                   	push   %ebp
    3971:	89 e5                	mov    %esp,%ebp
    3973:	53                   	push   %ebx
    3974:	83 ec 04             	sub    $0x4,%esp
    3977:	e8 fc ff ff ff       	call   3978 <__fsm_dev_open+0x8>
    397c:	b9 f3 f4 00 00       	mov    $0xf4f3,%ecx
    3981:	ba 01 00 00 00       	mov    $0x1,%edx
    3986:	89 c3                	mov    %eax,%ebx
    3988:	b8 06 00 00 00       	mov    $0x6,%eax
    398d:	c7 04 24 30 02 00 00 	movl   $0x230,(%esp)
    3994:	e8 fc ff ff ff       	call   3995 <__fsm_dev_open+0x25>
    3999:	b9 f3 f4 00 00       	mov    $0xf4f3,%ecx
    399e:	ba 01 00 00 00       	mov    $0x1,%edx
    39a3:	b8 01 00 00 00       	mov    $0x1,%eax
    39a8:	c7 04 24 3a 02 00 00 	movl   $0x23a,(%esp)
    39af:	e8 fc ff ff ff       	call   39b0 <__fsm_dev_open+0x40>
    39b4:	b9 f3 f4 00 00       	mov    $0xf4f3,%ecx
    39b9:	ba 01 00 00 00       	mov    $0x1,%edx
    39be:	b8 01 00 00 00       	mov    $0x1,%eax
    39c3:	c7 04 24 3a 02 00 00 	movl   $0x23a,(%esp)
    39ca:	e8 fc ff ff ff       	call   39cb <__fsm_dev_open+0x5b>
    39cf:	b8 00 00 00 00       	mov    $0x0,%eax
    39d4:	e8 fc ff ff ff       	call   39d5 <__fsm_dev_open+0x65>
static __always_inline void
clear_bit(int nr, volatile unsigned long *addr)
{
	if (IS_IMMEDIATE(nr)) {
		asm volatile(LOCK_PREFIX "andb %1,%0"
			: CONST_MASK_ADDR(nr, addr)
    39d9:	8b 83 40 02 00 00    	mov    0x240(%ebx),%eax
 */
static __always_inline void
clear_bit(int nr, volatile unsigned long *addr)
{
	if (IS_IMMEDIATE(nr)) {
		asm volatile(LOCK_PREFIX "andb %1,%0"
    39df:	f0 80 60 50 fe       	lock andb $0xfe,0x50(%eax)
    39e4:	e8 fc ff ff ff       	call   39e5 <__fsm_dev_open+0x75>
    39e9:	31 c0                	xor    %eax,%eax
    39eb:	83 c4 04             	add    $0x4,%esp
    39ee:	5b                   	pop    %ebx
    39ef:	5d                   	pop    %ebp
    39f0:	c3                   	ret    
    39f1:	eb 0d                	jmp    3a00 <dev_init>
    39f3:	90                   	nop
    39f4:	90                   	nop
    39f5:	90                   	nop
    39f6:	90                   	nop
    39f7:	90                   	nop
    39f8:	90                   	nop
    39f9:	90                   	nop
    39fa:	90                   	nop
    39fb:	90                   	nop
    39fc:	90                   	nop
    39fd:	90                   	nop
    39fe:	90                   	nop
    39ff:	90                   	nop

00003a00 <dev_init>:
    3a00:	55                   	push   %ebp
    3a01:	89 e5                	mov    %esp,%ebp
    3a03:	53                   	push   %ebx
    3a04:	83 ec 08             	sub    $0x8,%esp
    3a07:	e8 fc ff ff ff       	call   3a08 <dev_init+0x8>
    3a0c:	85 c0                	test   %eax,%eax
    3a0e:	89 c3                	mov    %eax,%ebx
    3a10:	0f 84 a1 00 00 00    	je     3ab7 <dev_init+0xb7>
    3a16:	b9 60 00 00 00       	mov    $0x60,%ecx
    3a1b:	31 d2                	xor    %edx,%edx
    3a1d:	c7 80 50 02 00 00 80 	movl   $0x80,0x250(%eax)
    3a24:	00 00 00 
    3a27:	c7 80 50 01 00 00 ff 	movl   $0xffff,0x150(%eax)
    3a2e:	ff 00 00 
    3a31:	c7 80 3c 01 00 00 00 	movl   $0x0,0x13c(%eax)
    3a38:	00 00 00 
    3a3b:	c6 80 7d 01 00 00 00 	movb   $0x0,0x17d(%eax)
    3a42:	66 c7 80 56 01 00 00 	movw   $0x0,0x156(%eax)
    3a49:	00 00 
    3a4b:	c7 80 34 01 00 00 80 	movl   $0x180,0x134(%eax)
    3a52:	01 00 00 
    3a55:	c7 80 60 02 00 00 e8 	movl   $0x3e8,0x260(%eax)
    3a5c:	03 00 00 
    3a5f:	c7 80 40 01 00 00 82 	movl   $0x1082,0x140(%eax)
    3a66:	10 00 00 
    3a69:	8d 80 c0 04 00 00    	lea    0x4c0(%eax),%eax
    3a6f:	e8 fc ff ff ff       	call   3a70 <dev_init+0x70>
    3a74:	89 d8                	mov    %ebx,%eax
    3a76:	e8 fc ff ff ff       	call   3a77 <dev_init+0x77>
    3a7b:	b8 04 00 00 00       	mov    $0x4,%eax
    3a80:	e8 fc ff ff ff       	call   3a81 <dev_init+0x81>
    3a85:	b9 04 00 00 00       	mov    $0x4,%ecx
    3a8a:	31 d2                	xor    %edx,%edx
    3a8c:	89 83 1c 05 00 00    	mov    %eax,0x51c(%ebx)
    3a92:	e8 fc ff ff ff       	call   3a93 <dev_init+0x93>
    3a97:	8b 8b 1c 05 00 00    	mov    0x51c(%ebx),%ecx
    3a9d:	ba 00 00 00 00       	mov    $0x0,%edx
    3aa2:	b8 47 02 00 00       	mov    $0x247,%eax
    3aa7:	e8 fc ff ff ff       	call   3aa8 <dev_init+0xa8>
    3aac:	e8 fc ff ff ff       	call   3aad <dev_init+0xad>
    3ab1:	83 c4 08             	add    $0x8,%esp
    3ab4:	5b                   	pop    %ebx
    3ab5:	5d                   	pop    %ebp
    3ab6:	c3                   	ret    
    3ab7:	c7 44 24 04 60 01 00 	movl   $0x160,0x4(%esp)
    3abe:	00 
    3abf:	c7 04 24 f8 0e 00 00 	movl   $0xef8,(%esp)
    3ac6:	e8 fc ff ff ff       	call   3ac7 <dev_init+0xc7>
    3acb:	e8 fc ff ff ff       	call   3acc <dev_init+0xcc>
    3ad0:	eb df                	jmp    3ab1 <dev_init+0xb1>
    3ad2:	8d b4 26 00 00 00 00 	lea    0x0(%esi,%eiz,1),%esi
    3ad9:	8d bc 27 00 00 00 00 	lea    0x0(%edi,%eiz,1),%edi

00003ae0 <__fsm_dev_stop>:
    3ae0:	55                   	push   %ebp
    3ae1:	89 e5                	mov    %esp,%ebp
    3ae3:	53                   	push   %ebx
    3ae4:	83 ec 04             	sub    $0x4,%esp
    3ae7:	e8 fc ff ff ff       	call   3ae8 <__fsm_dev_stop+0x8>
    3aec:	89 c3                	mov    %eax,%ebx
    3aee:	e8 fc ff ff ff       	call   3aef <__fsm_dev_stop+0xf>
    3af3:	b8 00 00 00 00       	mov    $0x0,%eax
    3af8:	e8 fc ff ff ff       	call   3af9 <__fsm_dev_stop+0x19>
    3afd:	8b 83 40 02 00 00    	mov    0x240(%ebx),%eax
	}
}

static inline void netif_tx_stop_queue(struct netdev_queue *dev_queue)
{
	if (WARN_ON(!dev_queue)) {
    3b03:	85 c0                	test   %eax,%eax
    3b05:	74 0d                	je     3b14 <__fsm_dev_stop+0x34>
 */
static __always_inline void
set_bit(unsigned int nr, volatile unsigned long *addr)
{
	if (IS_IMMEDIATE(nr)) {
		asm volatile(LOCK_PREFIX "orb %1,%0"
    3b07:	f0 80 48 50 01       	lock orb $0x1,0x50(%eax)
    3b0c:	83 c4 04             	add    $0x4,%esp
    3b0f:	31 c0                	xor    %eax,%eax
    3b11:	5b                   	pop    %ebx
    3b12:	5d                   	pop    %ebp
    3b13:	c3                   	ret    
    3b14:	ba 50 07 00 00       	mov    $0x750,%edx
    3b19:	b8 53 02 00 00       	mov    $0x253,%eax
    3b1e:	e8 fc ff ff ff       	call   3b1f <__fsm_dev_stop+0x3f>
		pr_info("netif_stop_queue() cannot be called before register_netdev()\n");
    3b23:	c7 04 24 20 0f 00 00 	movl   $0xf20,(%esp)
    3b2a:	e8 fc ff ff ff       	call   3b2b <__fsm_dev_stop+0x4b>
    3b2f:	eb db                	jmp    3b0c <__fsm_dev_stop+0x2c>
    3b31:	eb 0d                	jmp    3b40 <send_to_user>
    3b33:	90                   	nop
    3b34:	90                   	nop
    3b35:	90                   	nop
    3b36:	90                   	nop
    3b37:	90                   	nop
    3b38:	90                   	nop
    3b39:	90                   	nop
    3b3a:	90                   	nop
    3b3b:	90                   	nop
    3b3c:	90                   	nop
    3b3d:	90                   	nop
    3b3e:	90                   	nop
    3b3f:	90                   	nop

00003b40 <send_to_user>:
    3b40:	55                   	push   %ebp
    3b41:	89 e5                	mov    %esp,%ebp
    3b43:	e8 fc ff ff ff       	call   3b44 <send_to_user+0x4>
    3b48:	5d                   	pop    %ebp
    3b49:	c3                   	ret    
    3b4a:	8d b6 00 00 00 00    	lea    0x0(%esi),%esi

00003b50 <rcv_msg_from_us>:
    3b50:	55                   	push   %ebp
    3b51:	89 e5                	mov    %esp,%ebp
    3b53:	e8 fc ff ff ff       	call   3b54 <rcv_msg_from_us+0x4>
    3b58:	5d                   	pop    %ebp
    3b59:	c3                   	ret    
    3b5a:	8d b6 00 00 00 00    	lea    0x0(%esi),%esi

00003b60 <__fsm_dev_create>:
    3b60:	55                   	push   %ebp
    3b61:	89 e5                	mov    %esp,%ebp
    3b63:	53                   	push   %ebx
    3b64:	83 ec 08             	sub    $0x8,%esp
    3b67:	e8 fc ff ff ff       	call   3b68 <__fsm_dev_create+0x8>
    3b6c:	b9 00 00 00 00       	mov    $0x0,%ecx
    3b71:	ba 6d 02 00 00       	mov    $0x26d,%edx
    3b76:	b8 60 00 00 00       	mov    $0x60,%eax
    3b7b:	c7 44 24 04 01 00 00 	movl   $0x1,0x4(%esp)
    3b82:	00 
    3b83:	c7 04 24 01 00 00 00 	movl   $0x1,(%esp)
    3b8a:	e8 fc ff ff ff       	call   3b8b <__fsm_dev_create+0x2b>
    3b8f:	85 c0                	test   %eax,%eax
    3b91:	89 c3                	mov    %eax,%ebx
    3b93:	74 41                	je     3bd6 <__fsm_dev_create+0x76>
    3b95:	8b 80 d0 01 00 00    	mov    0x1d0(%eax),%eax
    3b9b:	c6 00 00             	movb   $0x0,(%eax)
    3b9e:	c6 40 01 11          	movb   $0x11,0x1(%eax)
    3ba2:	c6 40 02 1a          	movb   $0x1a,0x2(%eax)
    3ba6:	c6 40 03 1a          	movb   $0x1a,0x3(%eax)
    3baa:	c6 40 04 8a          	movb   $0x8a,0x4(%eax)
    3bae:	c6 40 05 42          	movb   $0x42,0x5(%eax)
    3bb2:	89 d8                	mov    %ebx,%eax
    3bb4:	e8 fc ff ff ff       	call   3bb5 <__fsm_dev_create+0x55>
    3bb9:	85 c0                	test   %eax,%eax
    3bbb:	75 0b                	jne    3bc8 <__fsm_dev_create+0x68>
    3bbd:	31 c0                	xor    %eax,%eax
    3bbf:	83 c4 08             	add    $0x8,%esp
    3bc2:	5b                   	pop    %ebx
    3bc3:	5d                   	pop    %ebp
    3bc4:	c3                   	ret    
    3bc5:	8d 76 00             	lea    0x0(%esi),%esi
    3bc8:	89 d8                	mov    %ebx,%eax
    3bca:	e8 fc ff ff ff       	call   3bcb <__fsm_dev_create+0x6b>
    3bcf:	b8 ff ff ff ff       	mov    $0xffffffff,%eax
    3bd4:	eb e9                	jmp    3bbf <__fsm_dev_create+0x5f>
    3bd6:	b8 fe ff ff ff       	mov    $0xfffffffe,%eax
    3bdb:	eb e2                	jmp    3bbf <__fsm_dev_create+0x5f>
    3bdd:	8d 76 00             	lea    0x0(%esi),%esi

00003be0 <__fsm_dev_destroy>:
    3be0:	55                   	push   %ebp
    3be1:	89 e5                	mov    %esp,%ebp
    3be3:	53                   	push   %ebx
    3be4:	e8 fc ff ff ff       	call   3be5 <__fsm_dev_destroy+0x5>
    3be9:	e8 fc ff ff ff       	call   3bea <__fsm_dev_destroy+0xa>
    3bee:	89 c3                	mov    %eax,%ebx
    3bf0:	e8 fc ff ff ff       	call   3bf1 <__fsm_dev_destroy+0x11>
    3bf5:	8b 83 1c 05 00 00    	mov    0x51c(%ebx),%eax
    3bfb:	e8 fc ff ff ff       	call   3bfc <__fsm_dev_destroy+0x1c>
    3c00:	89 d8                	mov    %ebx,%eax
    3c02:	e8 fc ff ff ff       	call   3c03 <__fsm_dev_destroy+0x23>
    3c07:	89 d8                	mov    %ebx,%eax
    3c09:	e8 fc ff ff ff       	call   3c0a <__fsm_dev_destroy+0x2a>
    3c0e:	5b                   	pop    %ebx
    3c0f:	5d                   	pop    %ebp
    3c10:	c3                   	ret    
    3c11:	90                   	nop
    3c12:	90                   	nop
    3c13:	90                   	nop
    3c14:	90                   	nop
    3c15:	90                   	nop
    3c16:	90                   	nop
    3c17:	90                   	nop
    3c18:	90                   	nop
    3c19:	90                   	nop
    3c1a:	90                   	nop
    3c1b:	90                   	nop
    3c1c:	90                   	nop
    3c1d:	90                   	nop
    3c1e:	90                   	nop
    3c1f:	90                   	nop

00003c20 <gen_Defaultradioresource>:
    3c20:	55                   	push   %ebp
    3c21:	89 e5                	mov    %esp,%ebp
    3c23:	57                   	push   %edi
    3c24:	53                   	push   %ebx
    3c25:	81 ec 68 02 00 00    	sub    $0x268,%esp
    3c2b:	e8 fc ff ff ff       	call   3c2c <gen_Defaultradioresource+0xc>
    3c30:	31 c0                	xor    %eax,%eax
    3c32:	c7 45 d4 00 00 00 00 	movl   $0x0,-0x2c(%ebp)
    3c39:	c7 45 d8 00 00 00 00 	movl   $0x0,-0x28(%ebp)
    3c40:	c7 45 dc 00 00 00 00 	movl   $0x0,-0x24(%ebp)
    3c47:	c7 45 e0 00 00 00 00 	movl   $0x0,-0x20(%ebp)
    3c4e:	c7 45 e4 00 00 00 00 	movl   $0x0,-0x1c(%ebp)
    3c55:	c7 45 e8 00 00 00 00 	movl   $0x0,-0x18(%ebp)
    3c5c:	c7 45 ec 00 00 00 00 	movl   $0x0,-0x14(%ebp)
    3c63:	c7 45 f0 00 00 00 00 	movl   $0x0,-0x10(%ebp)
    3c6a:	c7 45 f4 00 00 00 00 	movl   $0x0,-0xc(%ebp)
    3c71:	c7 45 b8 00 00 00 00 	movl   $0x0,-0x48(%ebp)
    3c78:	c7 45 bc 00 00 00 00 	movl   $0x0,-0x44(%ebp)
    3c7f:	c7 45 c0 00 00 00 00 	movl   $0x0,-0x40(%ebp)
    3c86:	c7 45 b0 01 00 00 00 	movl   $0x1,-0x50(%ebp)
    3c8d:	c7 45 b4 01 00 00 00 	movl   $0x1,-0x4c(%ebp)
    3c94:	c7 85 2c ff ff ff 01 	movl   $0x1,-0xd4(%ebp)
    3c9b:	00 00 00 
    3c9e:	c7 85 30 ff ff ff 01 	movl   $0x1,-0xd0(%ebp)
    3ca5:	00 00 00 
    3ca8:	c7 85 34 ff ff ff 00 	movl   $0x0,-0xcc(%ebp)
    3caf:	00 00 00 
    3cb2:	c7 85 38 ff ff ff 00 	movl   $0x0,-0xc8(%ebp)
    3cb9:	00 00 00 
    3cbc:	c7 85 3c ff ff ff 00 	movl   $0x0,-0xc4(%ebp)
    3cc3:	00 00 00 
    3cc6:	c7 84 05 40 ff ff ff 	movl   $0x0,-0xc0(%ebp,%eax,1)
    3ccd:	00 00 00 00 
    3cd1:	83 c0 04             	add    $0x4,%eax
    3cd4:	83 f8 20             	cmp    $0x20,%eax
    3cd7:	72 ed                	jb     3cc6 <gen_Defaultradioresource+0xa6>
    3cd9:	31 c0                	xor    %eax,%eax
    3cdb:	c7 44 05 98 00 00 00 	movl   $0x0,-0x68(%ebp,%eax,1)
    3ce2:	00 
    3ce3:	83 c0 04             	add    $0x4,%eax
    3ce6:	83 f8 18             	cmp    $0x18,%eax
    3ce9:	72 f0                	jb     3cdb <gen_Defaultradioresource+0xbb>
    3ceb:	8b 45 dc             	mov    -0x24(%ebp),%eax
    3cee:	c7 45 c4 00 00 00 00 	movl   $0x0,-0x3c(%ebp)
    3cf5:	c7 45 c8 00 00 00 00 	movl   $0x0,-0x38(%ebp)
    3cfc:	c7 45 cc 00 00 00 00 	movl   $0x0,-0x34(%ebp)
    3d03:	89 85 a4 fd ff ff    	mov    %eax,-0x25c(%ebp)
    3d09:	8b 45 e8             	mov    -0x18(%ebp),%eax
    3d0c:	c7 45 d0 00 00 00 00 	movl   $0x0,-0x30(%ebp)
    3d13:	c6 85 90 fd ff ff 01 	movb   $0x1,-0x270(%ebp)
    3d1a:	c7 85 94 fd ff ff 00 	movl   $0x0,-0x26c(%ebp)
    3d21:	00 00 00 
    3d24:	89 85 e0 fd ff ff    	mov    %eax,-0x220(%ebp)
    3d2a:	8b 45 f4             	mov    -0xc(%ebp),%eax
    3d2d:	c6 85 98 fd ff ff 01 	movb   $0x1,-0x268(%ebp)
    3d34:	c7 85 9c fd ff ff 03 	movl   $0x3,-0x264(%ebp)
    3d3b:	00 00 00 
    3d3e:	c7 85 a0 fd ff ff 05 	movl   $0x5,-0x260(%ebp)
    3d45:	00 00 00 
    3d48:	89 85 ec fd ff ff    	mov    %eax,-0x214(%ebp)
    3d4e:	8b 85 28 ff ff ff    	mov    -0xd8(%ebp),%eax
    3d54:	c6 85 a8 fd ff ff 01 	movb   $0x1,-0x258(%ebp)
    3d5b:	c7 85 ac fd ff ff 0a 	movl   $0xa,-0x254(%ebp)
    3d62:	00 00 00 
    3d65:	c7 85 b0 fd ff ff 0c 	movl   $0xc,-0x250(%ebp)
    3d6c:	00 00 00 
    3d6f:	c7 85 b4 fd ff ff 0f 	movl   $0xf,-0x24c(%ebp)
    3d76:	00 00 00 
    3d79:	c6 85 b8 fd ff ff 01 	movb   $0x1,-0x248(%ebp)
    3d80:	c7 85 bc fd ff ff 00 	movl   $0x0,-0x244(%ebp)
    3d87:	00 00 00 
    3d8a:	c7 85 c0 fd ff ff 00 	movl   $0x0,-0x240(%ebp)
    3d91:	00 00 00 
    3d94:	c6 85 c4 fd ff ff 00 	movb   $0x0,-0x23c(%ebp)
    3d9b:	c7 85 c8 fd ff ff 00 	movl   $0x0,-0x238(%ebp)
    3da2:	00 00 00 
    3da5:	c7 85 cc fd ff ff 07 	movl   $0x7,-0x234(%ebp)
    3dac:	00 00 00 
    3daf:	c7 85 d0 fd ff ff 04 	movl   $0x4,-0x230(%ebp)
    3db6:	00 00 00 
    3db9:	c6 85 d4 fd ff ff 01 	movb   $0x1,-0x22c(%ebp)
    3dc0:	c7 85 d8 fd ff ff 01 	movl   $0x1,-0x228(%ebp)
    3dc7:	00 00 00 
    3dca:	c7 85 dc fd ff ff 01 	movl   $0x1,-0x224(%ebp)
    3dd1:	00 00 00 
    3dd4:	c7 85 e4 fd ff ff 01 	movl   $0x1,-0x21c(%ebp)
    3ddb:	00 00 00 
    3dde:	c7 85 e8 fd ff ff 01 	movl   $0x1,-0x218(%ebp)
    3de5:	00 00 00 
    3de8:	c6 85 f0 fd ff ff 01 	movb   $0x1,-0x210(%ebp)
    3def:	89 85 fc fd ff ff    	mov    %eax,-0x204(%ebp)
    3df5:	8b 85 34 ff ff ff    	mov    -0xcc(%ebp),%eax
    3dfb:	c7 85 f4 fd ff ff 0c 	movl   $0xc,-0x20c(%ebp)
    3e02:	00 00 00 
    3e05:	c7 85 f8 fd ff ff 00 	movl   $0x0,-0x208(%ebp)
    3e0c:	00 00 00 
    3e0f:	c6 85 fc fd ff ff 01 	movb   $0x1,-0x204(%ebp)
    3e16:	89 85 08 fe ff ff    	mov    %eax,-0x1f8(%ebp)
    3e1c:	8b 85 38 ff ff ff    	mov    -0xc8(%ebp),%eax
    3e22:	c7 85 00 fe ff ff 01 	movl   $0x1,-0x200(%ebp)
    3e29:	00 00 00 
    3e2c:	c7 85 04 fe ff ff 01 	movl   $0x1,-0x1fc(%ebp)
    3e33:	00 00 00 
    3e36:	c6 85 14 fe ff ff 01 	movb   $0x1,-0x1ec(%ebp)
    3e3d:	89 85 0c fe ff ff    	mov    %eax,-0x1f4(%ebp)
    3e43:	8b 85 3c ff ff ff    	mov    -0xc4(%ebp),%eax
    3e49:	c7 85 18 fe ff ff 01 	movl   $0x1,-0x1e8(%ebp)
    3e50:	00 00 00 
    3e53:	c7 85 1c fe ff ff 01 	movl   $0x1,-0x1e4(%ebp)
    3e5a:	00 00 00 
    3e5d:	c6 85 38 fe ff ff 01 	movb   $0x1,-0x1c8(%ebp)
    3e64:	89 85 10 fe ff ff    	mov    %eax,-0x1f0(%ebp)
    3e6a:	8b 85 48 ff ff ff    	mov    -0xb8(%ebp),%eax
    3e70:	c7 85 3c fe ff ff 01 	movl   $0x1,-0x1c4(%ebp)
    3e77:	00 00 00 
    3e7a:	c7 85 40 fe ff ff 01 	movl   $0x1,-0x1c0(%ebp)
    3e81:	00 00 00 
    3e84:	89 85 20 fe ff ff    	mov    %eax,-0x1e0(%ebp)
    3e8a:	8b 85 4c ff ff ff    	mov    -0xb4(%ebp),%eax
    3e90:	89 85 24 fe ff ff    	mov    %eax,-0x1dc(%ebp)
    3e96:	8b 85 50 ff ff ff    	mov    -0xb0(%ebp),%eax
    3e9c:	89 85 28 fe ff ff    	mov    %eax,-0x1d8(%ebp)
    3ea2:	8b 85 54 ff ff ff    	mov    -0xac(%ebp),%eax
    3ea8:	89 85 2c fe ff ff    	mov    %eax,-0x1d4(%ebp)
    3eae:	8b 85 58 ff ff ff    	mov    -0xa8(%ebp),%eax
    3eb4:	89 85 30 fe ff ff    	mov    %eax,-0x1d0(%ebp)
    3eba:	8b 85 5c ff ff ff    	mov    -0xa4(%ebp),%eax
    3ec0:	89 85 34 fe ff ff    	mov    %eax,-0x1cc(%ebp)
    3ec6:	8b 45 a0             	mov    -0x60(%ebp),%eax
    3ec9:	89 85 44 fe ff ff    	mov    %eax,-0x1bc(%ebp)
    3ecf:	8b 45 a4             	mov    -0x5c(%ebp),%eax
    3ed2:	89 85 48 fe ff ff    	mov    %eax,-0x1b8(%ebp)
    3ed8:	31 c0                	xor    %eax,%eax
    3eda:	c7 85 4c fe ff ff 01 	movl   $0x1,-0x1b4(%ebp)
    3ee1:	00 00 00 
    3ee4:	c7 85 50 fe ff ff 01 	movl   $0x1,-0x1b0(%ebp)
    3eeb:	00 00 00 
    3eee:	c6 85 54 fe ff ff 01 	movb   $0x1,-0x1ac(%ebp)
    3ef5:	c7 85 60 fe ff ff 00 	movl   $0x0,-0x1a0(%ebp)
    3efc:	00 00 00 
    3eff:	c7 85 64 fe ff ff 00 	movl   $0x0,-0x19c(%ebp)
    3f06:	00 00 00 
    3f09:	c7 85 58 fe ff ff 01 	movl   $0x1,-0x1a8(%ebp)
    3f10:	00 00 00 
    3f13:	c7 85 5c fe ff ff 01 	movl   $0x1,-0x1a4(%ebp)
    3f1a:	00 00 00 
    3f1d:	c7 84 05 60 ff ff ff 	movl   $0x0,-0xa0(%ebp,%eax,1)
    3f24:	00 00 00 00 
    3f28:	83 c0 04             	add    $0x4,%eax
    3f2b:	83 f8 1c             	cmp    $0x1c,%eax
    3f2e:	72 ed                	jb     3f1d <gen_Defaultradioresource+0x2fd>
    3f30:	31 c0                	xor    %eax,%eax
    3f32:	c7 84 05 7c ff ff ff 	movl   $0x0,-0x84(%ebp,%eax,1)
    3f39:	00 00 00 00 
    3f3d:	83 c0 04             	add    $0x4,%eax
    3f40:	83 f8 1c             	cmp    $0x1c,%eax
    3f43:	72 ed                	jb     3f32 <gen_Defaultradioresource+0x312>
    3f45:	8d 95 b8 fe ff ff    	lea    -0x148(%ebp),%edx
    3f4b:	31 c0                	xor    %eax,%eax
    3f4d:	89 d7                	mov    %edx,%edi
    3f4f:	8b 95 68 ff ff ff    	mov    -0x98(%ebp),%edx
    3f55:	b9 11 00 00 00       	mov    $0x11,%ecx
    3f5a:	f3 ab                	rep stos %eax,%es:(%edi)
    3f5c:	c6 85 bc fe ff ff 01 	movb   $0x1,-0x144(%ebp)
    3f63:	c7 85 c0 fe ff ff 01 	movl   $0x1,-0x140(%ebp)
    3f6a:	00 00 00 
    3f6d:	89 95 c8 fe ff ff    	mov    %edx,-0x138(%ebp)
    3f73:	8b 95 6c ff ff ff    	mov    -0x94(%ebp),%edx
    3f79:	c7 85 c4 fe ff ff 01 	movl   $0x1,-0x13c(%ebp)
    3f80:	00 00 00 
    3f83:	c6 85 dc fe ff ff 01 	movb   $0x1,-0x124(%ebp)
    3f8a:	b1 09                	mov    $0x9,%cl
    3f8c:	89 95 cc fe ff ff    	mov    %edx,-0x134(%ebp)
    3f92:	8b 95 70 ff ff ff    	mov    -0x90(%ebp),%edx
    3f98:	c7 85 e0 fe ff ff 01 	movl   $0x1,-0x120(%ebp)
    3f9f:	00 00 00 
    3fa2:	c7 85 e4 fe ff ff 01 	movl   $0x1,-0x11c(%ebp)
    3fa9:	00 00 00 
    3fac:	89 95 d0 fe ff ff    	mov    %edx,-0x130(%ebp)
    3fb2:	8b 95 74 ff ff ff    	mov    -0x8c(%ebp),%edx
    3fb8:	89 95 d4 fe ff ff    	mov    %edx,-0x12c(%ebp)
    3fbe:	8b 95 78 ff ff ff    	mov    -0x88(%ebp),%edx
    3fc4:	89 95 d8 fe ff ff    	mov    %edx,-0x128(%ebp)
    3fca:	8b 55 84             	mov    -0x7c(%ebp),%edx
    3fcd:	89 95 e8 fe ff ff    	mov    %edx,-0x118(%ebp)
    3fd3:	8b 55 88             	mov    -0x78(%ebp),%edx
    3fd6:	89 95 ec fe ff ff    	mov    %edx,-0x114(%ebp)
    3fdc:	8b 55 8c             	mov    -0x74(%ebp),%edx
    3fdf:	89 95 f0 fe ff ff    	mov    %edx,-0x110(%ebp)
    3fe5:	8b 55 90             	mov    -0x70(%ebp),%edx
    3fe8:	89 95 f4 fe ff ff    	mov    %edx,-0x10c(%ebp)
    3fee:	8b 55 94             	mov    -0x6c(%ebp),%edx
    3ff1:	89 95 f8 fe ff ff    	mov    %edx,-0x108(%ebp)
    3ff7:	8d 95 fc fe ff ff    	lea    -0x104(%ebp),%edx
    3ffd:	89 d7                	mov    %edx,%edi
    3fff:	f3 ab                	rep stos %eax,%es:(%edi)
    4001:	8d 95 68 fe ff ff    	lea    -0x198(%ebp),%edx
    4007:	89 d7                	mov    %edx,%edi
    4009:	b1 14                	mov    $0x14,%cl
    400b:	f3 ab                	rep stos %eax,%es:(%edi)
    400d:	66 b8 ec 04          	mov    $0x4ec,%ax
    4011:	c6 85 68 fe ff ff 01 	movb   $0x1,-0x198(%ebp)
    4018:	c7 85 6c fe ff ff 05 	movl   $0x5,-0x194(%ebp)
    401f:	00 00 00 
    4022:	c7 85 70 fe ff ff ff 	movl   $0xffffffff,-0x190(%ebp)
    4029:	ff ff ff 
    402c:	c7 85 74 fe ff ff 00 	movl   $0xa00,-0x18c(%ebp)
    4033:	0a 00 00 
    4036:	c6 85 7c fe ff ff 01 	movb   $0x1,-0x184(%ebp)
    403d:	c7 85 88 fe ff ff 00 	movl   $0x0,-0x178(%ebp)
    4044:	00 00 00 
    4047:	c7 85 8c fe ff ff 00 	movl   $0x0,-0x174(%ebp)
    404e:	00 00 00 
    4051:	c7 85 90 fe ff ff 00 	movl   $0x0,-0x170(%ebp)
    4058:	00 00 00 
    405b:	c7 85 94 fe ff ff 00 	movl   $0x0,-0x16c(%ebp)
    4062:	00 00 00 
    4065:	c7 85 98 fe ff ff 00 	movl   $0x0,-0x168(%ebp)
    406c:	00 00 00 
    406f:	c7 85 9c fe ff ff 00 	movl   $0x0,-0x164(%ebp)
    4076:	00 00 00 
    4079:	c7 85 a0 fe ff ff 00 	movl   $0x0,-0x160(%ebp)
    4080:	00 00 00 
    4083:	c7 85 80 fe ff ff 01 	movl   $0x1,-0x180(%ebp)
    408a:	00 00 00 
    408d:	c7 85 84 fe ff ff 01 	movl   $0x1,-0x17c(%ebp)
    4094:	00 00 00 
    4097:	c7 85 a8 fe ff ff 01 	movl   $0x1,-0x158(%ebp)
    409e:	00 00 00 
    40a1:	c7 85 ac fe ff ff 01 	movl   $0x1,-0x154(%ebp)
    40a8:	00 00 00 
    40ab:	e8 fc ff ff ff       	call   40ac <gen_Defaultradioresource+0x48c>
    40b0:	8d 95 68 fe ff ff    	lea    -0x198(%ebp),%edx
    40b6:	b9 50 00 00 00       	mov    $0x50,%ecx
    40bb:	89 c3                	mov    %eax,%ebx
    40bd:	c6 00 00             	movb   $0x0,(%eax)
    40c0:	c6 40 78 00          	movb   $0x0,0x78(%eax)
    40c4:	c6 80 40 03 00 00 00 	movb   $0x0,0x340(%eax)
    40cb:	c6 80 74 03 00 00 01 	movb   $0x1,0x374(%eax)
    40d2:	8d 80 78 03 00 00    	lea    0x378(%eax),%eax
    40d8:	e8 fc ff ff ff       	call   40d9 <gen_Defaultradioresource+0x4b9>
    40dd:	8d 95 b8 fe ff ff    	lea    -0x148(%ebp),%edx
    40e3:	b9 44 00 00 00       	mov    $0x44,%ecx
    40e8:	c6 83 c8 03 00 00 01 	movb   $0x1,0x3c8(%ebx)
    40ef:	8d 83 cc 03 00 00    	lea    0x3cc(%ebx),%eax
    40f5:	e8 fc ff ff ff       	call   40f6 <gen_Defaultradioresource+0x4d6>
    40fa:	8d 83 14 04 00 00    	lea    0x414(%ebx),%eax
    4100:	b9 44 00 00 00       	mov    $0x44,%ecx
    4105:	c6 83 10 04 00 00 01 	movb   $0x1,0x410(%ebx)
    410c:	8d 95 90 fd ff ff    	lea    -0x270(%ebp),%edx
    4112:	e8 fc ff ff ff       	call   4113 <gen_Defaultradioresource+0x4f3>
    4117:	89 d8                	mov    %ebx,%eax
    4119:	81 c4 68 02 00 00    	add    $0x268,%esp
    411f:	5b                   	pop    %ebx
    4120:	5f                   	pop    %edi
    4121:	5d                   	pop    %ebp
    4122:	c3                   	ret    
    4123:	8d b6 00 00 00 00    	lea    0x0(%esi),%esi
    4129:	8d bc 27 00 00 00 00 	lea    0x0(%edi,%eiz,1),%edi

00004130 <gen_sysInfoTimer>:
    4130:	55                   	push   %ebp
    4131:	89 e5                	mov    %esp,%ebp
    4133:	53                   	push   %ebx
    4134:	83 ec 04             	sub    $0x4,%esp
    4137:	e8 fc ff ff ff       	call   4138 <gen_sysInfoTimer+0x8>
    413c:	b8 08 01 00 00       	mov    $0x108,%eax
    4141:	c7 45 f8 00 a0 0f 00 	movl   $0xfa000,-0x8(%ebp)
    4148:	e8 fc ff ff ff       	call   4149 <gen_sysInfoTimer+0x19>
    414d:	8d 55 f8             	lea    -0x8(%ebp),%edx
    4150:	b9 04 00 00 00       	mov    $0x4,%ecx
    4155:	89 c3                	mov    %eax,%ebx
    4157:	8d 80 04 01 00 00    	lea    0x104(%eax),%eax
    415d:	e8 fc ff ff ff       	call   415e <gen_sysInfoTimer+0x2e>
    4162:	89 d8                	mov    %ebx,%eax
    4164:	83 c4 04             	add    $0x4,%esp
    4167:	5b                   	pop    %ebx
    4168:	5d                   	pop    %ebp
    4169:	c3                   	ret    
    416a:	8d b6 00 00 00 00    	lea    0x0(%esi),%esi

00004170 <gen_ul_ccchmsg_send_rrcquest>:
    4170:	55                   	push   %ebp
    4171:	89 e5                	mov    %esp,%ebp
    4173:	53                   	push   %ebx
    4174:	83 ec 14             	sub    $0x14,%esp
    4177:	e8 fc ff ff ff       	call   4178 <gen_ul_ccchmsg_send_rrcquest+0x8>
    417c:	b8 0e 00 00 00       	mov    $0xe,%eax
    4181:	c6 45 f2 01          	movb   $0x1,-0xe(%ebp)
    4185:	c6 45 f3 0b          	movb   $0xb,-0xd(%ebp)
    4189:	c7 45 f4 40 e2 01 00 	movl   $0x1e240,-0xc(%ebp)
    4190:	c7 45 f8 02 00 00 00 	movl   $0x2,-0x8(%ebp)
    4197:	e8 fc ff ff ff       	call   4198 <gen_ul_ccchmsg_send_rrcquest+0x28>
    419c:	8d 55 f2             	lea    -0xe(%ebp),%edx
    419f:	b9 0a 00 00 00       	mov    $0xa,%ecx
    41a4:	89 c3                	mov    %eax,%ebx
    41a6:	c7 00 02 00 00 00    	movl   $0x2,(%eax)
    41ac:	8d 40 04             	lea    0x4(%eax),%eax
    41af:	e8 fc ff ff ff       	call   41b0 <gen_ul_ccchmsg_send_rrcquest+0x40>
    41b4:	c7 04 24 64 0f 00 00 	movl   $0xf64,(%esp)
    41bb:	e8 fc ff ff ff       	call   41bc <gen_ul_ccchmsg_send_rrcquest+0x4c>
    41c0:	8b 03                	mov    (%ebx),%eax
    41c2:	c7 04 24 98 0f 00 00 	movl   $0xf98,(%esp)
    41c9:	89 44 24 04          	mov    %eax,0x4(%esp)
    41cd:	e8 fc ff ff ff       	call   41ce <gen_ul_ccchmsg_send_rrcquest+0x5e>
    41d2:	89 d8                	mov    %ebx,%eax
    41d4:	83 c4 14             	add    $0x14,%esp
    41d7:	5b                   	pop    %ebx
    41d8:	5d                   	pop    %ebp
    41d9:	c3                   	ret    
    41da:	8d b6 00 00 00 00    	lea    0x0(%esi),%esi

000041e0 <gen_dl_ccch_send_rrcsetup>:
    41e0:	55                   	push   %ebp
    41e1:	89 e5                	mov    %esp,%ebp
    41e3:	57                   	push   %edi
    41e4:	56                   	push   %esi
    41e5:	53                   	push   %ebx
    41e6:	81 ec c8 0e 00 00    	sub    $0xec8,%esp
    41ec:	e8 fc ff ff ff       	call   41ed <gen_dl_ccch_send_rrcsetup+0xd>
    41f1:	31 c0                	xor    %eax,%eax
    41f3:	b9 b1 00 00 00       	mov    $0xb1,%ecx
    41f8:	8d 95 08 fb ff ff    	lea    -0x4f8(%ebp),%edx
    41fe:	89 d7                	mov    %edx,%edi
    4200:	f3 ab                	rep stos %eax,%es:(%edi)
    4202:	8d 7d ac             	lea    -0x54(%ebp),%edi
    4205:	b1 0c                	mov    $0xc,%cl
    4207:	f3 ab                	rep stos %eax,%es:(%edi)
    4209:	c7 44 05 dc 00 00 00 	movl   $0x0,-0x24(%ebp,%eax,1)
    4210:	00 
    4211:	83 c0 04             	add    $0x4,%eax
    4214:	83 f8 18             	cmp    $0x18,%eax
    4217:	72 f0                	jb     4209 <gen_dl_ccch_send_rrcsetup+0x29>
    4219:	c6 45 e4 02          	movb   $0x2,-0x1c(%ebp)
    421d:	8b 45 e4             	mov    -0x1c(%ebp),%eax
    4220:	8d bd 20 f6 ff ff    	lea    -0x9e0(%ebp),%edi
    4226:	c7 85 30 fe ff ff 14 	movl   $0x14,-0x1d0(%ebp)
    422d:	00 00 00 
    4230:	8d b5 a4 fe ff ff    	lea    -0x15c(%ebp),%esi
    4236:	b9 1d 00 00 00       	mov    $0x1d,%ecx
    423b:	c7 85 34 fe ff ff 02 	movl   $0x2,-0x1cc(%ebp)
    4242:	00 00 00 
    4245:	c6 85 38 fe ff ff 01 	movb   $0x1,-0x1c8(%ebp)
    424c:	89 85 80 fe ff ff    	mov    %eax,-0x180(%ebp)
    4252:	8b 45 e8             	mov    -0x18(%ebp),%eax
    4255:	c7 85 3c fe ff ff 02 	movl   $0x2,-0x1c4(%ebp)
    425c:	00 00 00 
    425f:	c7 85 40 fe ff ff 64 	movl   $0x64,-0x1c0(%ebp)
    4266:	00 00 00 
    4269:	c7 85 44 fe ff ff 64 	movl   $0x64,-0x1bc(%ebp)
    4270:	00 00 00 
    4273:	89 85 84 fe ff ff    	mov    %eax,-0x17c(%ebp)
    4279:	c7 85 48 fe ff ff 03 	movl   $0x3,-0x1b8(%ebp)
    4280:	00 00 00 
    4283:	c7 85 4c fe ff ff 64 	movl   $0x64,-0x1b4(%ebp)
    428a:	00 00 00 
    428d:	c7 85 54 fe ff ff 02 	movl   $0x2,-0x1ac(%ebp)
    4294:	00 00 00 
    4297:	c7 85 58 fe ff ff 00 	movl   $0x0,-0x1a8(%ebp)
    429e:	00 00 00 
    42a1:	c7 85 5c fe ff ff 00 	movl   $0x0,-0x1a4(%ebp)
    42a8:	00 00 00 
    42ab:	c7 85 60 fe ff ff 02 	movl   $0x2,-0x1a0(%ebp)
    42b2:	00 00 00 
    42b5:	c6 85 64 fe ff ff 01 	movb   $0x1,-0x19c(%ebp)
    42bc:	c7 85 68 fe ff ff 02 	movl   $0x2,-0x198(%ebp)
    42c3:	00 00 00 
    42c6:	c7 85 6c fe ff ff 01 	movl   $0x1,-0x194(%ebp)
    42cd:	00 00 00 
    42d0:	c7 85 70 fe ff ff 01 	movl   $0x1,-0x190(%ebp)
    42d7:	00 00 00 
    42da:	c7 45 dc 03 00 00 00 	movl   $0x3,-0x24(%ebp)
    42e1:	c7 45 e0 02 00 00 00 	movl   $0x2,-0x20(%ebp)
    42e8:	c7 45 ec 02 00 00 00 	movl   $0x2,-0x14(%ebp)
    42ef:	c7 45 f0 01 00 00 00 	movl   $0x1,-0x10(%ebp)
    42f6:	c7 85 78 fe ff ff 03 	movl   $0x3,-0x188(%ebp)
    42fd:	00 00 00 
    4300:	c7 85 7c fe ff ff 02 	movl   $0x2,-0x184(%ebp)
    4307:	00 00 00 
    430a:	c7 85 88 fe ff ff 02 	movl   $0x2,-0x178(%ebp)
    4311:	00 00 00 
    4314:	c7 85 8c fe ff ff 01 	movl   $0x1,-0x174(%ebp)
    431b:	00 00 00 
    431e:	c7 85 a4 fe ff ff 02 	movl   $0x2,-0x15c(%ebp)
    4325:	00 00 00 
    4328:	c7 85 a8 fe ff ff 01 	movl   $0x1,-0x158(%ebp)
    432f:	00 00 00 
    4332:	c6 85 ac fe ff ff 01 	movb   $0x1,-0x154(%ebp)
    4339:	c7 85 b0 fe ff ff 01 	movl   $0x1,-0x150(%ebp)
    4340:	00 00 00 
    4343:	c7 85 b4 fe ff ff 78 	movl   $0x78,-0x14c(%ebp)
    434a:	00 00 00 
    434d:	c7 85 b8 fe ff ff 08 	movl   $0x8,-0x148(%ebp)
    4354:	00 00 00 
    4357:	c7 85 bc fe ff ff e8 	movl   $0x3e8,-0x144(%ebp)
    435e:	03 00 00 
    4361:	c7 85 c0 fe ff ff 02 	movl   $0x2,-0x140(%ebp)
    4368:	00 00 00 
    436b:	c7 85 c4 fe ff ff 14 	movl   $0x14,-0x13c(%ebp)
    4372:	00 00 00 
    4375:	c7 85 c8 fe ff ff 14 	movl   $0x14,-0x138(%ebp)
    437c:	00 00 00 
    437f:	c6 85 cc fe ff ff 01 	movb   $0x1,-0x134(%ebp)
    4386:	c6 85 cd fe ff ff 01 	movb   $0x1,-0x133(%ebp)
    438d:	c7 85 ce fe ff ff 01 	movl   $0x1,-0x132(%ebp)
    4394:	00 00 00 
    4397:	c7 85 d2 fe ff ff 20 	movl   $0x20,-0x12e(%ebp)
    439e:	00 00 00 
    43a1:	c7 85 d6 fe ff ff 64 	movl   $0x64,-0x12a(%ebp)
    43a8:	00 00 00 
    43ab:	c7 85 da fe ff ff 01 	movl   $0x1,-0x126(%ebp)
    43b2:	00 00 00 
    43b5:	c7 85 e0 fe ff ff 02 	movl   $0x2,-0x120(%ebp)
    43bc:	00 00 00 
    43bf:	c6 85 e4 fe ff ff 01 	movb   $0x1,-0x11c(%ebp)
    43c6:	c7 85 e8 fe ff ff 01 	movl   $0x1,-0x118(%ebp)
    43cd:	00 00 00 
    43d0:	c7 85 ec fe ff ff 78 	movl   $0x78,-0x114(%ebp)
    43d7:	00 00 00 
    43da:	c7 85 f0 fe ff ff 08 	movl   $0x8,-0x110(%ebp)
    43e1:	00 00 00 
    43e4:	c7 85 f4 fe ff ff e8 	movl   $0x3e8,-0x10c(%ebp)
    43eb:	03 00 00 
    43ee:	c7 85 f8 fe ff ff 02 	movl   $0x2,-0x108(%ebp)
    43f5:	00 00 00 
    43f8:	c7 85 fc fe ff ff 14 	movl   $0x14,-0x104(%ebp)
    43ff:	00 00 00 
    4402:	c7 85 00 ff ff ff 14 	movl   $0x14,-0x100(%ebp)
    4409:	00 00 00 
    440c:	c6 85 04 ff ff ff 01 	movb   $0x1,-0xfc(%ebp)
    4413:	c6 85 05 ff ff ff 01 	movb   $0x1,-0xfb(%ebp)
    441a:	c7 85 06 ff ff ff 01 	movl   $0x1,-0xfa(%ebp)
    4421:	00 00 00 
    4424:	c7 85 0a ff ff ff 20 	movl   $0x20,-0xf6(%ebp)
    442b:	00 00 00 
    442e:	c7 85 0e ff ff ff 64 	movl   $0x64,-0xf2(%ebp)
    4435:	00 00 00 
    4438:	c7 85 12 ff ff ff 01 	movl   $0x1,-0xee(%ebp)
    443f:	00 00 00 
    4442:	c7 85 08 fb ff ff 01 	movl   $0x1,-0x4f8(%ebp)
    4449:	00 00 00 
    444c:	f3 a5                	rep movsl %ds:(%esi),%es:(%edi)
    444e:	89 d6                	mov    %edx,%esi
    4450:	c7 85 0c fb ff ff 01 	movl   $0x1,-0x4f4(%ebp)
    4457:	00 00 00 
    445a:	8d bd 98 f6 ff ff    	lea    -0x968(%ebp),%edi
    4460:	c7 85 10 fb ff ff 07 	movl   $0x7,-0x4f0(%ebp)
    4467:	00 00 00 
    446a:	c6 85 14 fb ff ff 01 	movb   $0x1,-0x4ec(%ebp)
    4471:	c7 85 18 fb ff ff 01 	movl   $0x1,-0x4e8(%ebp)
    4478:	00 00 00 
    447b:	c7 85 1c fb ff ff 78 	movl   $0x78,-0x4e4(%ebp)
    4482:	00 00 00 
    4485:	8b 45 b4             	mov    -0x4c(%ebp),%eax
    4488:	c7 85 20 fb ff ff 08 	movl   $0x8,-0x4e0(%ebp)
    448f:	00 00 00 
    4492:	b1 b1                	mov    $0xb1,%cl
    4494:	c7 85 24 fb ff ff e8 	movl   $0x3e8,-0x4dc(%ebp)
    449b:	03 00 00 
    449e:	c7 85 28 fb ff ff 02 	movl   $0x2,-0x4d8(%ebp)
    44a5:	00 00 00 
    44a8:	89 85 68 f9 ff ff    	mov    %eax,-0x698(%ebp)
    44ae:	8b 45 b8             	mov    -0x48(%ebp),%eax
    44b1:	c7 85 2c fb ff ff 14 	movl   $0x14,-0x4d4(%ebp)
    44b8:	00 00 00 
    44bb:	c7 85 30 fb ff ff 14 	movl   $0x14,-0x4d0(%ebp)
    44c2:	00 00 00 
    44c5:	c7 85 34 fb ff ff 07 	movl   $0x7,-0x4cc(%ebp)
    44cc:	00 00 00 
    44cf:	89 85 6c f9 ff ff    	mov    %eax,-0x694(%ebp)
    44d5:	8b 45 bc             	mov    -0x44(%ebp),%eax
    44d8:	c6 85 38 fb ff ff 01 	movb   $0x1,-0x4c8(%ebp)
    44df:	c6 85 39 fb ff ff 01 	movb   $0x1,-0x4c7(%ebp)
    44e6:	c7 85 3a fb ff ff 01 	movl   $0x1,-0x4c6(%ebp)
    44ed:	00 00 00 
    44f0:	89 85 70 f9 ff ff    	mov    %eax,-0x690(%ebp)
    44f6:	8b 45 c0             	mov    -0x40(%ebp),%eax
    44f9:	c7 85 3e fb ff ff 20 	movl   $0x20,-0x4c2(%ebp)
    4500:	00 00 00 
    4503:	c7 85 42 fb ff ff 64 	movl   $0x64,-0x4be(%ebp)
    450a:	00 00 00 
    450d:	c7 85 46 fb ff ff 01 	movl   $0x1,-0x4ba(%ebp)
    4514:	00 00 00 
    4517:	89 85 74 f9 ff ff    	mov    %eax,-0x68c(%ebp)
    451d:	8b 45 c4             	mov    -0x3c(%ebp),%eax
    4520:	f3 a5                	rep movsl %ds:(%esi),%es:(%edi)
    4522:	8d bd 94 f9 ff ff    	lea    -0x66c(%ebp),%edi
    4528:	c7 45 ac 01 00 00 00 	movl   $0x1,-0x54(%ebp)
    452f:	8d b5 18 ff ff ff    	lea    -0xe8(%ebp),%esi
    4535:	c7 45 b0 04 00 00 00 	movl   $0x4,-0x50(%ebp)
    453c:	89 85 78 f9 ff ff    	mov    %eax,-0x688(%ebp)
    4542:	8b 45 c8             	mov    -0x38(%ebp),%eax
    4545:	c7 85 60 f9 ff ff 01 	movl   $0x1,-0x6a0(%ebp)
    454c:	00 00 00 
    454f:	c7 85 64 f9 ff ff 04 	movl   $0x4,-0x69c(%ebp)
    4556:	00 00 00 
    4559:	b1 14                	mov    $0x14,%cl
    455b:	89 85 7c f9 ff ff    	mov    %eax,-0x684(%ebp)
    4561:	8b 45 cc             	mov    -0x34(%ebp),%eax
    4564:	89 85 80 f9 ff ff    	mov    %eax,-0x680(%ebp)
    456a:	8b 45 d0             	mov    -0x30(%ebp),%eax
    456d:	89 85 84 f9 ff ff    	mov    %eax,-0x67c(%ebp)
    4573:	8b 45 d4             	mov    -0x2c(%ebp),%eax
    4576:	c6 85 18 ff ff ff 01 	movb   $0x1,-0xe8(%ebp)
    457d:	c7 85 1c ff ff ff 02 	movl   $0x2,-0xe4(%ebp)
    4584:	00 00 00 
    4587:	c7 85 20 ff ff ff 28 	movl   $0x28,-0xe0(%ebp)
    458e:	00 00 00 
    4591:	c7 85 24 ff ff ff 80 	movl   $0x280,-0xdc(%ebp)
    4598:	02 00 00 
    459b:	c6 85 28 ff ff ff 01 	movb   $0x1,-0xd8(%ebp)
    45a2:	c6 85 2c ff ff ff 01 	movb   $0x1,-0xd4(%ebp)
    45a9:	c7 85 30 ff ff ff 02 	movl   $0x2,-0xd0(%ebp)
    45b0:	00 00 00 
    45b3:	c7 85 34 ff ff ff 3c 	movl   $0x3c,-0xcc(%ebp)
    45ba:	00 00 00 
    45bd:	c7 85 38 ff ff ff 64 	movl   $0x64,-0xc8(%ebp)
    45c4:	00 00 00 
    45c7:	c7 85 3c ff ff ff 08 	movl   $0x8,-0xc4(%ebp)
    45ce:	00 00 00 
    45d1:	c7 85 40 ff ff ff 03 	movl   $0x3,-0xc0(%ebp)
    45d8:	00 00 00 
    45db:	c7 85 44 ff ff ff 1e 	movl   $0x1e,-0xbc(%ebp)
    45e2:	00 00 00 
    45e5:	c6 85 48 ff ff ff 01 	movb   $0x1,-0xb8(%ebp)
    45ec:	c7 85 4c ff ff ff 40 	movl   $0x40,-0xb4(%ebp)
    45f3:	00 00 00 
    45f6:	c7 85 50 ff ff ff 04 	movl   $0x4,-0xb0(%ebp)
    45fd:	00 00 00 
    4600:	c7 85 54 ff ff ff 80 	movl   $0x780,-0xac(%ebp)
    4607:	07 00 00 
    460a:	c7 85 58 ff ff ff 02 	movl   $0x2,-0xa8(%ebp)
    4611:	00 00 00 
    4614:	c7 85 5c ff ff ff 64 	movl   $0x64,-0xa4(%ebp)
    461b:	00 00 00 
    461e:	c7 85 60 ff ff ff 64 	movl   $0x64,-0xa0(%ebp)
    4625:	00 00 00 
    4628:	c7 85 64 ff ff ff 01 	movl   $0x1,-0x9c(%ebp)
    462f:	00 00 00 
    4632:	f3 a5                	rep movsl %ds:(%esi),%es:(%edi)
    4634:	8d bd e8 f9 ff ff    	lea    -0x618(%ebp),%edi
    463a:	89 85 88 f9 ff ff    	mov    %eax,-0x678(%ebp)
    4640:	8b 45 d8             	mov    -0x28(%ebp),%eax
    4643:	8d b5 68 ff ff ff    	lea    -0x98(%ebp),%esi
    4649:	c6 85 68 ff ff ff 01 	movb   $0x1,-0x98(%ebp)
    4650:	66 c7 85 6a ff ff ff 	movw   $0x4,-0x96(%ebp)
    4657:	04 00 
    4659:	c6 85 6c ff ff ff 01 	movb   $0x1,-0x94(%ebp)
    4660:	89 85 8c f9 ff ff    	mov    %eax,-0x674(%ebp)
    4666:	b8 f4 04 00 00       	mov    $0x4f4,%eax
    466b:	c7 85 70 ff ff ff 02 	movl   $0x2,-0x90(%ebp)
    4672:	00 00 00 
    4675:	b1 11                	mov    $0x11,%cl
    4677:	c7 85 74 ff ff ff 28 	movl   $0x28,-0x8c(%ebp)
    467e:	00 00 00 
    4681:	c7 85 78 ff ff ff 04 	movl   $0x4,-0x88(%ebp)
    4688:	00 00 00 
    468b:	c7 85 7c ff ff ff 01 	movl   $0x1,-0x84(%ebp)
    4692:	00 00 00 
    4695:	c7 45 80 02 00 00 00 	movl   $0x2,-0x80(%ebp)
    469c:	c7 45 84 03 00 00 00 	movl   $0x3,-0x7c(%ebp)
    46a3:	c7 45 88 04 00 00 00 	movl   $0x4,-0x78(%ebp)
    46aa:	c6 45 8c 01          	movb   $0x1,-0x74(%ebp)
    46ae:	c7 45 90 02 00 00 00 	movl   $0x2,-0x70(%ebp)
    46b5:	c7 45 94 3c 00 00 00 	movl   $0x3c,-0x6c(%ebp)
    46bc:	c7 45 98 02 00 00 00 	movl   $0x2,-0x68(%ebp)
    46c3:	c6 45 9c 01          	movb   $0x1,-0x64(%ebp)
    46c7:	c7 45 a0 01 00 00 00 	movl   $0x1,-0x60(%ebp)
    46ce:	c7 45 a4 01 00 00 00 	movl   $0x1,-0x5c(%ebp)
    46d5:	c6 45 a8 01          	movb   $0x1,-0x58(%ebp)
    46d9:	f3 a5                	rep movsl %ds:(%esi),%es:(%edi)
    46db:	8d bd 30 fa ff ff    	lea    -0x5d0(%ebp),%edi
    46e1:	c6 85 cc fd ff ff 01 	movb   $0x1,-0x234(%ebp)
    46e8:	8d b5 cc fd ff ff    	lea    -0x234(%ebp),%esi
    46ee:	c7 85 d0 fd ff ff 01 	movl   $0x1,-0x230(%ebp)
    46f5:	00 00 00 
    46f8:	c6 85 d4 fd ff ff 01 	movb   $0x1,-0x22c(%ebp)
    46ff:	c7 85 d8 fd ff ff 02 	movl   $0x2,-0x228(%ebp)
    4706:	00 00 00 
    4709:	c7 85 dc fd ff ff 02 	movl   $0x2,-0x224(%ebp)
    4710:	00 00 00 
    4713:	c7 85 e0 fd ff ff 04 	movl   $0x4,-0x220(%ebp)
    471a:	00 00 00 
    471d:	b1 36                	mov    $0x36,%cl
    471f:	c6 85 e4 fd ff ff 01 	movb   $0x1,-0x21c(%ebp)
    4726:	c7 85 e8 fd ff ff 02 	movl   $0x2,-0x218(%ebp)
    472d:	00 00 00 
    4730:	c7 85 ec fd ff ff 02 	movl   $0x2,-0x214(%ebp)
    4737:	00 00 00 
    473a:	c7 85 f0 fd ff ff 02 	movl   $0x2,-0x210(%ebp)
    4741:	00 00 00 
    4744:	c6 85 f4 fd ff ff 01 	movb   $0x1,-0x20c(%ebp)
    474b:	c7 85 f8 fd ff ff 02 	movl   $0x2,-0x208(%ebp)
    4752:	00 00 00 
    4755:	c7 85 fc fd ff ff 01 	movl   $0x1,-0x204(%ebp)
    475c:	00 00 00 
    475f:	c6 85 00 fe ff ff 01 	movb   $0x1,-0x200(%ebp)
    4766:	c7 85 04 fe ff ff 02 	movl   $0x2,-0x1fc(%ebp)
    476d:	00 00 00 
    4770:	c7 85 08 fe ff ff 02 	movl   $0x2,-0x1f8(%ebp)
    4777:	00 00 00 
    477a:	c7 85 0c fe ff ff 06 	movl   $0x6,-0x1f4(%ebp)
    4781:	00 00 00 
    4784:	c6 85 10 fe ff ff 01 	movb   $0x1,-0x1f0(%ebp)
    478b:	c7 85 14 fe ff ff 02 	movl   $0x2,-0x1ec(%ebp)
    4792:	00 00 00 
    4795:	c7 85 18 fe ff ff 02 	movl   $0x2,-0x1e8(%ebp)
    479c:	00 00 00 
    479f:	c7 85 1c fe ff ff 02 	movl   $0x2,-0x1e4(%ebp)
    47a6:	00 00 00 
    47a9:	c7 85 20 fe ff ff 02 	movl   $0x2,-0x1e0(%ebp)
    47b0:	00 00 00 
    47b3:	c7 85 24 fe ff ff 02 	movl   $0x2,-0x1dc(%ebp)
    47ba:	00 00 00 
    47bd:	c7 85 28 fe ff ff 02 	movl   $0x2,-0x1d8(%ebp)
    47c4:	00 00 00 
    47c7:	c7 85 94 fe ff ff 02 	movl   $0x2,-0x16c(%ebp)
    47ce:	00 00 00 
    47d1:	c7 85 98 fe ff ff 64 	movl   $0x64,-0x168(%ebp)
    47d8:	00 00 00 
    47db:	c7 85 9c fe ff ff 64 	movl   $0x64,-0x164(%ebp)
    47e2:	00 00 00 
    47e5:	c7 85 a0 fe ff ff 04 	movl   $0x4,-0x160(%ebp)
    47ec:	00 00 00 
    47ef:	c6 85 2c fe ff ff 01 	movb   $0x1,-0x1d4(%ebp)
    47f6:	c6 85 50 fe ff ff 01 	movb   $0x1,-0x1b0(%ebp)
    47fd:	c6 85 74 fe ff ff 01 	movb   $0x1,-0x18c(%ebp)
    4804:	c6 85 80 fe ff ff 02 	movb   $0x2,-0x180(%ebp)
    480b:	c6 85 90 fe ff ff 01 	movb   $0x1,-0x170(%ebp)
    4812:	f3 a5                	rep movsl %ds:(%esi),%es:(%edi)
    4814:	8d bd 30 f1 ff ff    	lea    -0xed0(%ebp),%edi
    481a:	c6 85 2c f1 ff ff 02 	movb   $0x2,-0xed4(%ebp)
    4821:	8d b5 1c f6 ff ff    	lea    -0x9e4(%ebp),%esi
    4827:	66 b9 3b 01          	mov    $0x13b,%cx
    482b:	f3 a5                	rep movsl %ds:(%esi),%es:(%edi)
    482d:	c7 85 38 f1 ff ff 01 	movl   $0x1,-0xec8(%ebp)
    4834:	00 00 00 
    4837:	c6 85 3c f1 ff ff 01 	movb   $0x1,-0xec4(%ebp)
    483e:	c6 85 5c f1 ff ff 01 	movb   $0x1,-0xea4(%ebp)
    4845:	c7 85 70 f1 ff ff 02 	movl   $0x2,-0xe90(%ebp)
    484c:	00 00 00 
    484f:	c6 85 74 f1 ff ff 01 	movb   $0x1,-0xe8c(%ebp)
    4856:	c6 85 94 f1 ff ff 01 	movb   $0x1,-0xe6c(%ebp)
    485d:	c7 85 b0 f1 ff ff 01 	movl   $0x1,-0xe50(%ebp)
    4864:	00 00 00 
    4867:	c7 85 b4 f1 ff ff 07 	movl   $0x7,-0xe4c(%ebp)
    486e:	00 00 00 
    4871:	c6 85 b8 f1 ff ff 01 	movb   $0x1,-0xe48(%ebp)
    4878:	c7 85 d8 f1 ff ff 07 	movl   $0x7,-0xe28(%ebp)
    487f:	00 00 00 
    4882:	c6 85 dc f1 ff ff 01 	movb   $0x1,-0xe24(%ebp)
    4889:	c7 85 ac f4 ff ff 02 	movl   $0x2,-0xb54(%ebp)
    4890:	00 00 00 
    4893:	c7 85 b0 f4 ff ff 28 	movl   $0x28,-0xb50(%ebp)
    489a:	00 00 00 
    489d:	c7 85 b4 f4 ff ff 80 	movl   $0x280,-0xb4c(%ebp)
    48a4:	02 00 00 
    48a7:	c6 85 b8 f4 ff ff 01 	movb   $0x1,-0xb48(%ebp)
    48ae:	c7 85 c0 f4 ff ff 02 	movl   $0x2,-0xb40(%ebp)
    48b5:	00 00 00 
    48b8:	c7 85 e4 f4 ff ff 80 	movl   $0x780,-0xb1c(%ebp)
    48bf:	07 00 00 
    48c2:	c7 85 ec f4 ff ff 64 	movl   $0x64,-0xb14(%ebp)
    48c9:	00 00 00 
    48cc:	c7 85 f0 f4 ff ff 64 	movl   $0x64,-0xb10(%ebp)
    48d3:	00 00 00 
    48d6:	c7 85 f4 f4 ff ff 01 	movl   $0x1,-0xb0c(%ebp)
    48dd:	00 00 00 
    48e0:	66 c7 85 fe f4 ff ff 	movw   $0x4,-0xb02(%ebp)
    48e7:	04 00 
    48e9:	c7 85 04 f5 ff ff 02 	movl   $0x2,-0xafc(%ebp)
    48f0:	00 00 00 
    48f3:	c7 85 24 f5 ff ff 02 	movl   $0x2,-0xadc(%ebp)
    48fa:	00 00 00 
    48fd:	c7 85 48 f5 ff ff 01 	movl   $0x1,-0xab8(%ebp)
    4904:	00 00 00 
    4907:	c7 85 50 f5 ff ff 02 	movl   $0x2,-0xab0(%ebp)
    490e:	00 00 00 
    4911:	c7 85 54 f5 ff ff 02 	movl   $0x2,-0xaac(%ebp)
    4918:	00 00 00 
    491b:	c7 85 58 f5 ff ff 04 	movl   $0x4,-0xaa8(%ebp)
    4922:	00 00 00 
    4925:	c7 85 60 f5 ff ff 02 	movl   $0x2,-0xaa0(%ebp)
    492c:	00 00 00 
    492f:	c7 85 64 f5 ff ff 02 	movl   $0x2,-0xa9c(%ebp)
    4936:	00 00 00 
    4939:	c7 85 68 f5 ff ff 02 	movl   $0x2,-0xa98(%ebp)
    4940:	00 00 00 
    4943:	c7 85 70 f5 ff ff 02 	movl   $0x2,-0xa90(%ebp)
    494a:	00 00 00 
    494d:	c7 85 74 f5 ff ff 01 	movl   $0x1,-0xa8c(%ebp)
    4954:	00 00 00 
    4957:	c6 85 78 f5 ff ff 01 	movb   $0x1,-0xa88(%ebp)
    495e:	c7 85 7c f5 ff ff 02 	movl   $0x2,-0xa84(%ebp)
    4965:	00 00 00 
    4968:	c7 85 80 f5 ff ff 02 	movl   $0x2,-0xa80(%ebp)
    496f:	00 00 00 
    4972:	c7 85 84 f5 ff ff 06 	movl   $0x6,-0xa7c(%ebp)
    4979:	00 00 00 
    497c:	c7 85 8c f5 ff ff 02 	movl   $0x2,-0xa74(%ebp)
    4983:	00 00 00 
    4986:	c7 85 90 f5 ff ff 02 	movl   $0x2,-0xa70(%ebp)
    498d:	00 00 00 
    4990:	c7 85 94 f5 ff ff 02 	movl   $0x2,-0xa6c(%ebp)
    4997:	00 00 00 
    499a:	c7 85 98 f5 ff ff 02 	movl   $0x2,-0xa68(%ebp)
    49a1:	00 00 00 
    49a4:	c7 85 9c f5 ff ff 02 	movl   $0x2,-0xa64(%ebp)
    49ab:	00 00 00 
    49ae:	c7 85 a0 f5 ff ff 02 	movl   $0x2,-0xa60(%ebp)
    49b5:	00 00 00 
    49b8:	c7 85 a8 f5 ff ff 14 	movl   $0x14,-0xa58(%ebp)
    49bf:	00 00 00 
    49c2:	c7 85 ac f5 ff ff 02 	movl   $0x2,-0xa54(%ebp)
    49c9:	00 00 00 
    49cc:	c6 85 b0 f5 ff ff 01 	movb   $0x1,-0xa50(%ebp)
    49d3:	c7 85 cc f5 ff ff 02 	movl   $0x2,-0xa34(%ebp)
    49da:	00 00 00 
    49dd:	c7 85 f0 f5 ff ff 03 	movl   $0x3,-0xa10(%ebp)
    49e4:	00 00 00 
    49e7:	c7 85 f4 f5 ff ff 02 	movl   $0x2,-0xa0c(%ebp)
    49ee:	00 00 00 
    49f1:	c6 85 f8 f5 ff ff 02 	movb   $0x2,-0xa08(%ebp)
    49f8:	c7 85 00 f6 ff ff 02 	movl   $0x2,-0xa00(%ebp)
    49ff:	00 00 00 
    4a02:	c7 85 04 f6 ff ff 01 	movl   $0x1,-0x9fc(%ebp)
    4a09:	00 00 00 
    4a0c:	c7 85 0c f6 ff ff 02 	movl   $0x2,-0x9f4(%ebp)
    4a13:	00 00 00 
    4a16:	c7 85 10 f6 ff ff 64 	movl   $0x64,-0x9f0(%ebp)
    4a1d:	00 00 00 
    4a20:	c7 85 14 f6 ff ff 64 	movl   $0x64,-0x9ec(%ebp)
    4a27:	00 00 00 
    4a2a:	c7 85 18 f6 ff ff 04 	movl   $0x4,-0x9e8(%ebp)
    4a31:	00 00 00 
    4a34:	c6 85 30 f1 ff ff 01 	movb   $0x1,-0xed0(%ebp)
    4a3b:	c7 85 34 f1 ff ff 02 	movl   $0x2,-0xecc(%ebp)
    4a42:	00 00 00 
    4a45:	c6 85 a8 f1 ff ff 01 	movb   $0x1,-0xe58(%ebp)
    4a4c:	c7 85 ac f1 ff ff 01 	movl   $0x1,-0xe54(%ebp)
    4a53:	00 00 00 
    4a56:	c6 85 70 f4 ff ff 01 	movb   $0x1,-0xb90(%ebp)
    4a5d:	c7 85 74 f4 ff ff 01 	movl   $0x1,-0xb8c(%ebp)
    4a64:	00 00 00 
    4a67:	c7 85 78 f4 ff ff 04 	movl   $0x4,-0xb88(%ebp)
    4a6e:	00 00 00 
    4a71:	c6 85 a4 f4 ff ff 01 	movb   $0x1,-0xb5c(%ebp)
    4a78:	c6 85 a8 f4 ff ff 01 	movb   $0x1,-0xb58(%ebp)
    4a7f:	c6 85 bc f4 ff ff 01 	movb   $0x1,-0xb44(%ebp)
    4a86:	c7 85 e8 f4 ff ff 02 	movl   $0x2,-0xb18(%ebp)
    4a8d:	00 00 00 
    4a90:	c6 85 f8 f4 ff ff 01 	movb   $0x1,-0xb08(%ebp)
    4a97:	c6 85 fc f4 ff ff 01 	movb   $0x1,-0xb04(%ebp)
    4a9e:	c6 85 00 f5 ff ff 01 	movb   $0x1,-0xb00(%ebp)
    4aa5:	c6 85 20 f5 ff ff 01 	movb   $0x1,-0xae0(%ebp)
    4aac:	c6 85 40 f5 ff ff 01 	movb   $0x1,-0xac0(%ebp)
    4ab3:	c6 85 44 f5 ff ff 01 	movb   $0x1,-0xabc(%ebp)
    4aba:	c6 85 4c f5 ff ff 01 	movb   $0x1,-0xab4(%ebp)
    4ac1:	c6 85 5c f5 ff ff 01 	movb   $0x1,-0xaa4(%ebp)
    4ac8:	c6 85 6c f5 ff ff 01 	movb   $0x1,-0xa94(%ebp)
    4acf:	c6 85 88 f5 ff ff 01 	movb   $0x1,-0xa78(%ebp)
    4ad6:	c6 85 a4 f5 ff ff 01 	movb   $0x1,-0xa5c(%ebp)
    4add:	c6 85 c8 f5 ff ff 01 	movb   $0x1,-0xa38(%ebp)
    4ae4:	c6 85 ec f5 ff ff 01 	movb   $0x1,-0xa14(%ebp)
    4aeb:	c6 85 08 f6 ff ff 01 	movb   $0x1,-0x9f8(%ebp)
    4af2:	e8 fc ff ff ff       	call   4af3 <gen_dl_ccch_send_rrcsetup+0x913>
    4af7:	8d 95 2c f1 ff ff    	lea    -0xed4(%ebp),%edx
    4afd:	b9 f0 04 00 00       	mov    $0x4f0,%ecx
    4b02:	89 c3                	mov    %eax,%ebx
    4b04:	c7 00 04 00 00 00    	movl   $0x4,(%eax)
    4b0a:	8d 40 04             	lea    0x4(%eax),%eax
    4b0d:	e8 fc ff ff ff       	call   4b0e <gen_dl_ccch_send_rrcsetup+0x92e>
    4b12:	89 d8                	mov    %ebx,%eax
    4b14:	81 c4 c8 0e 00 00    	add    $0xec8,%esp
    4b1a:	5b                   	pop    %ebx
    4b1b:	5e                   	pop    %esi
    4b1c:	5f                   	pop    %edi
    4b1d:	5d                   	pop    %ebp
    4b1e:	c3                   	ret    
    4b1f:	90                   	nop

00004b20 <gen_ul_dcch_rrccomplete>:
    4b20:	55                   	push   %ebp
    4b21:	89 e5                	mov    %esp,%ebp
    4b23:	53                   	push   %ebx
    4b24:	83 ec 5c             	sub    $0x5c,%esp
    4b27:	e8 fc ff ff ff       	call   4b28 <gen_ul_dcch_rrccomplete+0x8>
    4b2c:	31 c0                	xor    %eax,%eax
    4b2e:	c7 44 05 e4 00 00 00 	movl   $0x0,-0x1c(%ebp,%eax,1)
    4b35:	00 
    4b36:	83 c0 04             	add    $0x4,%eax
    4b39:	83 f8 18             	cmp    $0x18,%eax
    4b3c:	72 f0                	jb     4b2e <gen_ul_dcch_rrccomplete+0xe>
    4b3e:	8b 45 f8             	mov    -0x8(%ebp),%eax
    4b41:	8b 5d e8             	mov    -0x18(%ebp),%ebx
    4b44:	8b 4d ec             	mov    -0x14(%ebp),%ecx
    4b47:	8b 55 f4             	mov    -0xc(%ebp),%edx
    4b4a:	89 45 dc             	mov    %eax,-0x24(%ebp)
    4b4d:	89 45 c0             	mov    %eax,-0x40(%ebp)
    4b50:	8b 45 e0             	mov    -0x20(%ebp),%eax
    4b53:	89 5d cc             	mov    %ebx,-0x34(%ebp)
    4b56:	89 4d d0             	mov    %ecx,-0x30(%ebp)
    4b59:	89 55 d8             	mov    %edx,-0x28(%ebp)
    4b5c:	89 45 c4             	mov    %eax,-0x3c(%ebp)
    4b5f:	b8 28 00 00 00       	mov    $0x28,%eax
    4b64:	89 5d b0             	mov    %ebx,-0x50(%ebp)
    4b67:	89 4d b4             	mov    %ecx,-0x4c(%ebp)
    4b6a:	89 55 bc             	mov    %edx,-0x44(%ebp)
    4b6d:	c7 45 e4 02 00 00 00 	movl   $0x2,-0x1c(%ebp)
    4b74:	c7 45 f0 02 00 00 00 	movl   $0x2,-0x10(%ebp)
    4b7b:	c7 45 c8 02 00 00 00 	movl   $0x2,-0x38(%ebp)
    4b82:	c7 45 d4 02 00 00 00 	movl   $0x2,-0x2c(%ebp)
    4b89:	c6 45 a4 01          	movb   $0x1,-0x5c(%ebp)
    4b8d:	c7 45 a8 01 00 00 00 	movl   $0x1,-0x58(%ebp)
    4b94:	c7 45 ac 02 00 00 00 	movl   $0x2,-0x54(%ebp)
    4b9b:	c7 45 b8 02 00 00 00 	movl   $0x2,-0x48(%ebp)
    4ba2:	66 c7 45 c4 01 00    	movw   $0x1,-0x3c(%ebp)
    4ba8:	c6 45 c6 01          	movb   $0x1,-0x3a(%ebp)
    4bac:	e8 fc ff ff ff       	call   4bad <gen_ul_dcch_rrccomplete+0x8d>
    4bb1:	8d 55 a4             	lea    -0x5c(%ebp),%edx
    4bb4:	b9 24 00 00 00       	mov    $0x24,%ecx
    4bb9:	89 c3                	mov    %eax,%ebx
    4bbb:	c7 00 04 00 00 00    	movl   $0x4,(%eax)
    4bc1:	8d 40 04             	lea    0x4(%eax),%eax
    4bc4:	e8 fc ff ff ff       	call   4bc5 <gen_ul_dcch_rrccomplete+0xa5>
    4bc9:	c7 04 24 c4 0f 00 00 	movl   $0xfc4,(%esp)
    4bd0:	e8 fc ff ff ff       	call   4bd1 <gen_ul_dcch_rrccomplete+0xb1>
    4bd5:	89 d8                	mov    %ebx,%eax
    4bd7:	83 c4 5c             	add    $0x5c,%esp
    4bda:	5b                   	pop    %ebx
    4bdb:	5d                   	pop    %ebp
    4bdc:	c3                   	ret    
    4bdd:	8d 76 00             	lea    0x0(%esi),%esi

00004be0 <set_default_physical_channel>:
    4be0:	55                   	push   %ebp
    4be1:	89 e5                	mov    %esp,%ebp
    4be3:	83 ec 04             	sub    $0x4,%esp
    4be6:	e8 fc ff ff ff       	call   4be7 <set_default_physical_channel+0x7>
    4beb:	c7 04 24 0c 10 00 00 	movl   $0x100c,(%esp)
    4bf2:	e8 fc ff ff ff       	call   4bf3 <set_default_physical_channel+0x13>
    4bf7:	c9                   	leave  
    4bf8:	c3                   	ret    
    4bf9:	8d b4 26 00 00 00 00 	lea    0x0(%esi,%eiz,1),%esi

00004c00 <set_default_semi_persistent>:
    4c00:	55                   	push   %ebp
    4c01:	89 e5                	mov    %esp,%ebp
    4c03:	83 ec 04             	sub    $0x4,%esp
    4c06:	e8 fc ff ff ff       	call   4c07 <set_default_semi_persistent+0x7>
    4c0b:	ba 10 00 00 00       	mov    $0x10,%edx
    4c10:	b8 01 00 00 00       	mov    $0x1,%eax
    4c15:	8d 4d 08             	lea    0x8(%ebp),%ecx
    4c18:	c7 04 24 44 00 00 00 	movl   $0x44,(%esp)
    4c1f:	e8 fc ff ff ff       	call   4c20 <set_default_semi_persistent+0x20>
    4c24:	c7 04 24 78 10 00 00 	movl   $0x1078,(%esp)
    4c2b:	e8 fc ff ff ff       	call   4c2c <set_default_semi_persistent+0x2c>
    4c30:	c9                   	leave  
    4c31:	c3                   	ret    
    4c32:	8d b4 26 00 00 00 00 	lea    0x0(%esi,%eiz,1),%esi
    4c39:	8d bc 27 00 00 00 00 	lea    0x0(%edi,%eiz,1),%edi

00004c40 <set_default_MAC>:
    4c40:	55                   	push   %ebp
    4c41:	89 e5                	mov    %esp,%ebp
    4c43:	83 ec 04             	sub    $0x4,%esp
    4c46:	e8 fc ff ff ff       	call   4c47 <set_default_MAC+0x7>
    4c4b:	ba 09 00 00 00       	mov    $0x9,%edx
    4c50:	b8 01 00 00 00       	mov    $0x1,%eax
    4c55:	8d 4d 08             	lea    0x8(%ebp),%ecx
    4c58:	c7 04 24 50 00 00 00 	movl   $0x50,(%esp)
    4c5f:	e8 fc ff ff ff       	call   4c60 <set_default_MAC+0x20>
    4c64:	c7 04 24 d4 10 00 00 	movl   $0x10d4,(%esp)
    4c6b:	e8 fc ff ff ff       	call   4c6c <set_default_MAC+0x2c>
    4c70:	c9                   	leave  
    4c71:	c3                   	ret    
    4c72:	8d b4 26 00 00 00 00 	lea    0x0(%esi,%eiz,1),%esi
    4c79:	8d bc 27 00 00 00 00 	lea    0x0(%edi,%eiz,1),%edi

00004c80 <set_timeAlignmentTimerCommon>:
    4c80:	55                   	push   %ebp
    4c81:	89 e5                	mov    %esp,%ebp
    4c83:	83 ec 04             	sub    $0x4,%esp
    4c86:	e8 fc ff ff ff       	call   4c87 <set_timeAlignmentTimerCommon+0x7>
    4c8b:	ba 05 00 00 00       	mov    $0x5,%edx
    4c90:	8d 88 04 01 00 00    	lea    0x104(%eax),%ecx
    4c96:	b8 01 00 00 00       	mov    $0x1,%eax
    4c9b:	c7 04 24 04 00 00 00 	movl   $0x4,(%esp)
    4ca2:	e8 fc ff ff ff       	call   4ca3 <set_timeAlignmentTimerCommon+0x23>
    4ca7:	c7 04 24 34 11 00 00 	movl   $0x1134,(%esp)
    4cae:	e8 fc ff ff ff       	call   4caf <set_timeAlignmentTimerCommon+0x2f>
    4cb3:	c9                   	leave  
    4cb4:	c3                   	ret    
    4cb5:	8d 74 26 00          	lea    0x0(%esi,%eiz,1),%esi
    4cb9:	8d bc 27 00 00 00 00 	lea    0x0(%edi,%eiz,1),%edi

00004cc0 <send_RRCConnectionRequest>:
    4cc0:	55                   	push   %ebp
    4cc1:	89 e5                	mov    %esp,%ebp
    4cc3:	53                   	push   %ebx
    4cc4:	83 ec 08             	sub    $0x8,%esp
    4cc7:	e8 fc ff ff ff       	call   4cc8 <send_RRCConnectionRequest+0x8>
    4ccc:	b9 05 00 00 00       	mov    $0x5,%ecx
    4cd1:	ba 0e 00 00 00       	mov    $0xe,%edx
    4cd6:	89 c3                	mov    %eax,%ebx
    4cd8:	e8 fc ff ff ff       	call   4cd9 <send_RRCConnectionRequest+0x19>
    4cdd:	c7 04 24 94 11 00 00 	movl   $0x1194,(%esp)
    4ce4:	e8 fc ff ff ff       	call   4ce5 <send_RRCConnectionRequest+0x25>
    4ce9:	0f b6 43 04          	movzbl 0x4(%ebx),%eax
    4ced:	c7 04 24 e0 11 00 00 	movl   $0x11e0,(%esp)
    4cf4:	89 44 24 04          	mov    %eax,0x4(%esp)
    4cf8:	e8 fc ff ff ff       	call   4cf9 <send_RRCConnectionRequest+0x39>
    4cfd:	0f b6 43 05          	movzbl 0x5(%ebx),%eax
    4d01:	c7 04 24 10 12 00 00 	movl   $0x1210,(%esp)
    4d08:	89 44 24 04          	mov    %eax,0x4(%esp)
    4d0c:	e8 fc ff ff ff       	call   4d0d <send_RRCConnectionRequest+0x4d>
    4d11:	83 c4 08             	add    $0x8,%esp
    4d14:	5b                   	pop    %ebx
    4d15:	5d                   	pop    %ebp
    4d16:	c3                   	ret    
    4d17:	89 f6                	mov    %esi,%esi
    4d19:	8d bc 27 00 00 00 00 	lea    0x0(%edi,%eiz,1),%edi

00004d20 <set_MAC_mainconfig>:
    4d20:	55                   	push   %ebp
    4d21:	89 e5                	mov    %esp,%ebp
    4d23:	83 ec 04             	sub    $0x4,%esp
    4d26:	e8 fc ff ff ff       	call   4d27 <set_MAC_mainconfig+0x7>
    4d2b:	80 b8 78 03 00 00 00 	cmpb   $0x0,0x378(%eax)
    4d32:	75 04                	jne    4d38 <set_MAC_mainconfig+0x18>
    4d34:	c9                   	leave  
    4d35:	c3                   	ret    
    4d36:	66 90                	xchg   %ax,%ax
    4d38:	8d 88 7c 03 00 00    	lea    0x37c(%eax),%ecx
    4d3e:	ba 09 00 00 00       	mov    $0x9,%edx
    4d43:	b8 01 00 00 00       	mov    $0x1,%eax
    4d48:	c7 04 24 50 00 00 00 	movl   $0x50,(%esp)
    4d4f:	e8 fc ff ff ff       	call   4d50 <set_MAC_mainconfig+0x30>
    4d54:	c7 04 24 40 12 00 00 	movl   $0x1240,(%esp)
    4d5b:	e8 fc ff ff ff       	call   4d5c <set_MAC_mainconfig+0x3c>
    4d60:	c9                   	leave  
    4d61:	c3                   	ret    
    4d62:	8d b4 26 00 00 00 00 	lea    0x0(%esi,%eiz,1),%esi
    4d69:	8d bc 27 00 00 00 00 	lea    0x0(%edi,%eiz,1),%edi

00004d70 <set_semi_persistent>:
    4d70:	55                   	push   %ebp
    4d71:	89 e5                	mov    %esp,%ebp
    4d73:	83 ec 04             	sub    $0x4,%esp
    4d76:	e8 fc ff ff ff       	call   4d77 <set_semi_persistent+0x7>
    4d7b:	80 b8 cc 03 00 00 00 	cmpb   $0x0,0x3cc(%eax)
    4d82:	75 04                	jne    4d88 <set_semi_persistent+0x18>
    4d84:	c9                   	leave  
    4d85:	c3                   	ret    
    4d86:	66 90                	xchg   %ax,%ax
    4d88:	8d 88 d0 03 00 00    	lea    0x3d0(%eax),%ecx
    4d8e:	ba 10 00 00 00       	mov    $0x10,%edx
    4d93:	b8 01 00 00 00       	mov    $0x1,%eax
    4d98:	c7 04 24 44 00 00 00 	movl   $0x44,(%esp)
    4d9f:	e8 fc ff ff ff       	call   4da0 <set_semi_persistent+0x30>
    4da4:	c7 04 24 94 12 00 00 	movl   $0x1294,(%esp)
    4dab:	e8 fc ff ff ff       	call   4dac <set_semi_persistent+0x3c>
    4db0:	c9                   	leave  
    4db1:	c3                   	ret    
    4db2:	8d b4 26 00 00 00 00 	lea    0x0(%esi,%eiz,1),%esi
    4db9:	8d bc 27 00 00 00 00 	lea    0x0(%edi,%eiz,1),%edi

00004dc0 <set_physicalConfigDedicated>:
    4dc0:	55                   	push   %ebp
    4dc1:	89 e5                	mov    %esp,%ebp
    4dc3:	83 ec 04             	sub    $0x4,%esp
    4dc6:	e8 fc ff ff ff       	call   4dc7 <set_physicalConfigDedicated+0x7>
    4dcb:	80 b8 14 04 00 00 00 	cmpb   $0x0,0x414(%eax)
    4dd2:	75 04                	jne    4dd8 <set_physicalConfigDedicated+0x18>
    4dd4:	c9                   	leave  
    4dd5:	c3                   	ret    
    4dd6:	66 90                	xchg   %ax,%ax
    4dd8:	c7 04 24 e8 12 00 00 	movl   $0x12e8,(%esp)
    4ddf:	e8 fc ff ff ff       	call   4de0 <set_physicalConfigDedicated+0x20>
    4de4:	c9                   	leave  
    4de5:	c3                   	ret    
    4de6:	8d 76 00             	lea    0x0(%esi),%esi
    4de9:	8d bc 27 00 00 00 00 	lea    0x0(%edi,%eiz,1),%edi

00004df0 <send_RRCConnectionSetupComplete>:
    4df0:	55                   	push   %ebp
    4df1:	89 e5                	mov    %esp,%ebp
    4df3:	83 ec 04             	sub    $0x4,%esp
    4df6:	e8 fc ff ff ff       	call   4df7 <send_RRCConnectionSetupComplete+0x7>
    4dfb:	b9 06 00 00 00       	mov    $0x6,%ecx
    4e00:	ba 04 00 00 00       	mov    $0x4,%edx
    4e05:	e8 fc ff ff ff       	call   4e06 <send_RRCConnectionSetupComplete+0x16>
    4e0a:	c7 04 24 64 13 00 00 	movl   $0x1364,(%esp)
    4e11:	e8 fc ff ff ff       	call   4e12 <send_RRCConnectionSetupComplete+0x22>
    4e16:	c9                   	leave  
    4e17:	c3                   	ret    
    4e18:	90                   	nop
    4e19:	90                   	nop
    4e1a:	90                   	nop
    4e1b:	90                   	nop
    4e1c:	90                   	nop
    4e1d:	90                   	nop
    4e1e:	90                   	nop
    4e1f:	90                   	nop

00004e20 <AddModDrb.isra.4>:
    4e20:	55                   	push   %ebp
    4e21:	89 e5                	mov    %esp,%ebp
    4e23:	57                   	push   %edi
    4e24:	56                   	push   %esi
    4e25:	53                   	push   %ebx
    4e26:	83 ec 44             	sub    $0x44,%esp
    4e29:	e8 fc ff ff ff       	call   4e2a <AddModDrb.isra.4+0xa>
    4e2e:	8b 7d 34             	mov    0x34(%ebp),%edi
    4e31:	8b 75 38             	mov    0x38(%ebp),%esi
    4e34:	89 c3                	mov    %eax,%ebx
    4e36:	8b 45 3c             	mov    0x3c(%ebp),%eax
    4e39:	85 c0                	test   %eax,%eax
    4e3b:	75 4b                	jne    4e88 <AddModDrb.isra.4+0x68>
    4e3d:	0f b6 45 20          	movzbl 0x20(%ebp),%eax
    4e41:	83 f9 02             	cmp    $0x2,%ecx
    4e44:	88 5d b8             	mov    %bl,-0x48(%ebp)
    4e47:	66 89 4d ba          	mov    %cx,-0x46(%ebp)
    4e4b:	88 45 b9             	mov    %al,-0x47(%ebp)
    4e4e:	0f 84 44 01 00 00    	je     4f98 <AddModDrb.isra.4+0x178>
    4e54:	0f 86 ee 00 00 00    	jbe    4f48 <AddModDrb.isra.4+0x128>
    4e5a:	83 f9 03             	cmp    $0x3,%ecx
    4e5d:	0f 84 bd 01 00 00    	je     5020 <AddModDrb.isra.4+0x200>
    4e63:	83 f9 04             	cmp    $0x4,%ecx
    4e66:	0f 85 e5 00 00 00    	jne    4f51 <AddModDrb.isra.4+0x131>
    4e6c:	0f b7 45 0c          	movzwl 0xc(%ebp),%eax
    4e70:	66 c7 45 ba 04 00    	movw   $0x4,-0x46(%ebp)
    4e76:	66 89 45 bc          	mov    %ax,-0x44(%ebp)
    4e7a:	8b 45 10             	mov    0x10(%ebp),%eax
    4e7d:	89 45 c0             	mov    %eax,-0x40(%ebp)
    4e80:	e9 cc 00 00 00       	jmp    4f51 <AddModDrb.isra.4+0x131>
    4e85:	8d 76 00             	lea    0x0(%esi),%esi
    4e88:	84 d2                	test   %dl,%dl
    4e8a:	74 6d                	je     4ef9 <AddModDrb.isra.4+0xd9>
    4e8c:	0f b6 45 20          	movzbl 0x20(%ebp),%eax
    4e90:	83 f9 02             	cmp    $0x2,%ecx
    4e93:	88 5d b8             	mov    %bl,-0x48(%ebp)
    4e96:	66 89 4d ba          	mov    %cx,-0x46(%ebp)
    4e9a:	88 45 b9             	mov    %al,-0x47(%ebp)
    4e9d:	0f 84 55 01 00 00    	je     4ff8 <AddModDrb.isra.4+0x1d8>
    4ea3:	0f 87 0f 01 00 00    	ja     4fb8 <AddModDrb.isra.4+0x198>
    4ea9:	83 f9 01             	cmp    $0x1,%ecx
    4eac:	75 32                	jne    4ee0 <AddModDrb.isra.4+0xc0>
    4eae:	8b 45 1c             	mov    0x1c(%ebp),%eax
    4eb1:	66 c7 45 ba 01 00    	movw   $0x1,-0x46(%ebp)
    4eb7:	89 45 c8             	mov    %eax,-0x38(%ebp)
    4eba:	8b 45 18             	mov    0x18(%ebp),%eax
    4ebd:	89 45 cc             	mov    %eax,-0x34(%ebp)
    4ec0:	8b 45 08             	mov    0x8(%ebp),%eax
    4ec3:	89 45 d0             	mov    %eax,-0x30(%ebp)
    4ec6:	0f b7 45 0c          	movzwl 0xc(%ebp),%eax
    4eca:	66 89 45 d4          	mov    %ax,-0x2c(%ebp)
    4ece:	0f b7 45 10          	movzwl 0x10(%ebp),%eax
    4ed2:	66 89 45 d6          	mov    %ax,-0x2a(%ebp)
    4ed6:	0f b7 45 14          	movzwl 0x14(%ebp),%eax
    4eda:	66 89 45 d8          	mov    %ax,-0x28(%ebp)
    4ede:	66 90                	xchg   %ax,%ax
    4ee0:	8d 4d b8             	lea    -0x48(%ebp),%ecx
    4ee3:	ba 02 00 00 00       	mov    $0x2,%edx
    4ee8:	b8 01 00 00 00       	mov    $0x1,%eax
    4eed:	c7 04 24 24 00 00 00 	movl   $0x24,(%esp)
    4ef4:	e8 fc ff ff ff       	call   4ef5 <AddModDrb.isra.4+0xd5>
    4ef9:	80 7d 24 00          	cmpb   $0x0,0x24(%ebp)
    4efd:	75 09                	jne    4f08 <AddModDrb.isra.4+0xe8>
    4eff:	83 c4 44             	add    $0x44,%esp
    4f02:	5b                   	pop    %ebx
    4f03:	5e                   	pop    %esi
    4f04:	5f                   	pop    %edi
    4f05:	5d                   	pop    %ebp
    4f06:	c3                   	ret    
    4f07:	90                   	nop
    4f08:	0f b6 45 28          	movzbl 0x28(%ebp),%eax
    4f0c:	89 7d ec             	mov    %edi,-0x14(%ebp)
    4f0f:	89 75 f0             	mov    %esi,-0x10(%ebp)
    4f12:	89 5d df             	mov    %ebx,-0x21(%ebp)
    4f15:	88 45 e3             	mov    %al,-0x1d(%ebp)
    4f18:	8b 45 2c             	mov    0x2c(%ebp),%eax
    4f1b:	89 45 e4             	mov    %eax,-0x1c(%ebp)
    4f1e:	8b 45 30             	mov    0x30(%ebp),%eax
    4f21:	89 45 e8             	mov    %eax,-0x18(%ebp)
    4f24:	8d 4d df             	lea    -0x21(%ebp),%ecx
    4f27:	ba 11 00 00 00       	mov    $0x11,%edx
    4f2c:	b8 01 00 00 00       	mov    $0x1,%eax
    4f31:	c7 04 24 15 00 00 00 	movl   $0x15,(%esp)
    4f38:	e8 fc ff ff ff       	call   4f39 <AddModDrb.isra.4+0x119>
    4f3d:	83 c4 44             	add    $0x44,%esp
    4f40:	5b                   	pop    %ebx
    4f41:	5e                   	pop    %esi
    4f42:	5f                   	pop    %edi
    4f43:	5d                   	pop    %ebp
    4f44:	c3                   	ret    
    4f45:	8d 76 00             	lea    0x0(%esi),%esi
    4f48:	83 f9 01             	cmp    $0x1,%ecx
    4f4b:	0f 84 e7 00 00 00    	je     5038 <AddModDrb.isra.4+0x218>
    4f51:	8d 4d b8             	lea    -0x48(%ebp),%ecx
    4f54:	ba 55 00 00 00       	mov    $0x55,%edx
    4f59:	b8 01 00 00 00       	mov    $0x1,%eax
    4f5e:	c7 04 24 24 00 00 00 	movl   $0x24,(%esp)
    4f65:	e8 fc ff ff ff       	call   4f66 <AddModDrb.isra.4+0x146>
    4f6a:	0f b6 45 28          	movzbl 0x28(%ebp),%eax
    4f6e:	89 7d ec             	mov    %edi,-0x14(%ebp)
    4f71:	89 75 f0             	mov    %esi,-0x10(%ebp)
    4f74:	89 5d df             	mov    %ebx,-0x21(%ebp)
    4f77:	88 45 e3             	mov    %al,-0x1d(%ebp)
    4f7a:	8b 45 2c             	mov    0x2c(%ebp),%eax
    4f7d:	89 5c 24 04          	mov    %ebx,0x4(%esp)
    4f81:	c7 04 24 c4 13 00 00 	movl   $0x13c4,(%esp)
    4f88:	89 45 e4             	mov    %eax,-0x1c(%ebp)
    4f8b:	8b 45 30             	mov    0x30(%ebp),%eax
    4f8e:	89 45 e8             	mov    %eax,-0x18(%ebp)
    4f91:	e8 fc ff ff ff       	call   4f92 <AddModDrb.isra.4+0x172>
    4f96:	eb 8c                	jmp    4f24 <AddModDrb.isra.4+0x104>
    4f98:	0f b7 45 0c          	movzwl 0xc(%ebp),%eax
    4f9c:	66 c7 45 ba 02 00    	movw   $0x2,-0x46(%ebp)
    4fa2:	66 89 45 bc          	mov    %ax,-0x44(%ebp)
    4fa6:	8b 45 10             	mov    0x10(%ebp),%eax
    4fa9:	89 45 c0             	mov    %eax,-0x40(%ebp)
    4fac:	0f b7 45 08          	movzwl 0x8(%ebp),%eax
    4fb0:	66 89 45 c4          	mov    %ax,-0x3c(%ebp)
    4fb4:	eb 9b                	jmp    4f51 <AddModDrb.isra.4+0x131>
    4fb6:	66 90                	xchg   %ax,%ax
    4fb8:	83 f9 03             	cmp    $0x3,%ecx
    4fbb:	74 23                	je     4fe0 <AddModDrb.isra.4+0x1c0>
    4fbd:	83 f9 04             	cmp    $0x4,%ecx
    4fc0:	0f 85 1a ff ff ff    	jne    4ee0 <AddModDrb.isra.4+0xc0>
    4fc6:	0f b7 45 0c          	movzwl 0xc(%ebp),%eax
    4fca:	66 c7 45 ba 04 00    	movw   $0x4,-0x46(%ebp)
    4fd0:	66 89 45 bc          	mov    %ax,-0x44(%ebp)
    4fd4:	8b 45 10             	mov    0x10(%ebp),%eax
    4fd7:	89 45 c0             	mov    %eax,-0x40(%ebp)
    4fda:	e9 01 ff ff ff       	jmp    4ee0 <AddModDrb.isra.4+0xc0>
    4fdf:	90                   	nop
    4fe0:	0f b7 45 08          	movzwl 0x8(%ebp),%eax
    4fe4:	66 c7 45 ba 03 00    	movw   $0x3,-0x46(%ebp)
    4fea:	66 89 45 c4          	mov    %ax,-0x3c(%ebp)
    4fee:	e9 ed fe ff ff       	jmp    4ee0 <AddModDrb.isra.4+0xc0>
    4ff3:	90                   	nop
    4ff4:	8d 74 26 00          	lea    0x0(%esi,%eiz,1),%esi
    4ff8:	0f b7 45 0c          	movzwl 0xc(%ebp),%eax
    4ffc:	66 c7 45 ba 02 00    	movw   $0x2,-0x46(%ebp)
    5002:	66 89 45 bc          	mov    %ax,-0x44(%ebp)
    5006:	8b 45 10             	mov    0x10(%ebp),%eax
    5009:	89 45 c0             	mov    %eax,-0x40(%ebp)
    500c:	0f b7 45 08          	movzwl 0x8(%ebp),%eax
    5010:	66 89 45 c4          	mov    %ax,-0x3c(%ebp)
    5014:	e9 c7 fe ff ff       	jmp    4ee0 <AddModDrb.isra.4+0xc0>
    5019:	8d b4 26 00 00 00 00 	lea    0x0(%esi,%eiz,1),%esi
    5020:	0f b7 45 08          	movzwl 0x8(%ebp),%eax
    5024:	66 c7 45 ba 03 00    	movw   $0x3,-0x46(%ebp)
    502a:	66 89 45 c4          	mov    %ax,-0x3c(%ebp)
    502e:	e9 1e ff ff ff       	jmp    4f51 <AddModDrb.isra.4+0x131>
    5033:	90                   	nop
    5034:	8d 74 26 00          	lea    0x0(%esi,%eiz,1),%esi
    5038:	8b 45 1c             	mov    0x1c(%ebp),%eax
    503b:	66 c7 45 ba 01 00    	movw   $0x1,-0x46(%ebp)
    5041:	89 45 c8             	mov    %eax,-0x38(%ebp)
    5044:	8b 45 18             	mov    0x18(%ebp),%eax
    5047:	89 45 cc             	mov    %eax,-0x34(%ebp)
    504a:	8b 45 08             	mov    0x8(%ebp),%eax
    504d:	89 45 d0             	mov    %eax,-0x30(%ebp)
    5050:	0f b7 45 0c          	movzwl 0xc(%ebp),%eax
    5054:	66 89 45 d4          	mov    %ax,-0x2c(%ebp)
    5058:	0f b7 45 10          	movzwl 0x10(%ebp),%eax
    505c:	66 89 45 d6          	mov    %ax,-0x2a(%ebp)
    5060:	0f b7 45 14          	movzwl 0x14(%ebp),%eax
    5064:	66 89 45 d8          	mov    %ax,-0x28(%ebp)
    5068:	e9 e4 fe ff ff       	jmp    4f51 <AddModDrb.isra.4+0x131>
    506d:	8d 76 00             	lea    0x0(%esi),%esi

00005070 <AddModSrb.isra.5>:
    5070:	55                   	push   %ebp
    5071:	89 e5                	mov    %esp,%ebp
    5073:	57                   	push   %edi
    5074:	56                   	push   %esi
    5075:	53                   	push   %ebx
    5076:	83 ec 10             	sub    $0x10,%esp
    5079:	e8 fc ff ff ff       	call   507a <AddModSrb.isra.5+0xa>
    507e:	89 45 f0             	mov    %eax,-0x10(%ebp)
    5081:	b8 24 00 00 00       	mov    $0x24,%eax
    5086:	89 d7                	mov    %edx,%edi
    5088:	89 4d ec             	mov    %ecx,-0x14(%ebp)
    508b:	e8 fc ff ff ff       	call   508c <AddModSrb.isra.5+0x1c>
    5090:	89 c3                	mov    %eax,%ebx
    5092:	b8 15 00 00 00       	mov    $0x15,%eax
    5097:	e8 fc ff ff ff       	call   5098 <AddModSrb.isra.5+0x28>
    509c:	66 89 7b 02          	mov    %di,0x2(%ebx)
    50a0:	89 c6                	mov    %eax,%esi
    50a2:	0f b6 45 f0          	movzbl -0x10(%ebp),%eax
    50a6:	88 03                	mov    %al,(%ebx)
    50a8:	88 43 01             	mov    %al,0x1(%ebx)
    50ab:	0f b6 45 1c          	movzbl 0x1c(%ebp),%eax
    50af:	88 46 04             	mov    %al,0x4(%esi)
    50b2:	8b 45 1d             	mov    0x1d(%ebp),%eax
    50b5:	89 46 05             	mov    %eax,0x5(%esi)
    50b8:	8b 45 21             	mov    0x21(%ebp),%eax
    50bb:	89 46 09             	mov    %eax,0x9(%esi)
    50be:	8b 45 25             	mov    0x25(%ebp),%eax
    50c1:	89 46 0d             	mov    %eax,0xd(%esi)
    50c4:	8b 45 29             	mov    0x29(%ebp),%eax
    50c7:	89 46 11             	mov    %eax,0x11(%esi)
    50ca:	8b 45 f0             	mov    -0x10(%ebp),%eax
    50cd:	89 06                	mov    %eax,(%esi)
    50cf:	89 7c 24 04          	mov    %edi,0x4(%esp)
    50d3:	c7 04 24 f0 13 00 00 	movl   $0x13f0,(%esp)
    50da:	e8 fc ff ff ff       	call   50db <AddModSrb.isra.5+0x6b>
    50df:	83 ff 02             	cmp    $0x2,%edi
    50e2:	8b 4d ec             	mov    -0x14(%ebp),%ecx
    50e5:	0f 84 fd 00 00 00    	je     51e8 <AddModSrb.isra.5+0x178>
    50eb:	0f 87 bf 00 00 00    	ja     51b0 <AddModSrb.isra.5+0x140>
    50f1:	83 ff 01             	cmp    $0x1,%edi
    50f4:	75 2a                	jne    5120 <AddModSrb.isra.5+0xb0>
    50f6:	8b 45 18             	mov    0x18(%ebp),%eax
    50f9:	89 4b 18             	mov    %ecx,0x18(%ebx)
    50fc:	89 43 10             	mov    %eax,0x10(%ebx)
    50ff:	8b 45 14             	mov    0x14(%ebp),%eax
    5102:	89 43 14             	mov    %eax,0x14(%ebx)
    5105:	0f b7 45 08          	movzwl 0x8(%ebp),%eax
    5109:	66 89 43 1c          	mov    %ax,0x1c(%ebx)
    510d:	0f b7 45 0c          	movzwl 0xc(%ebp),%eax
    5111:	66 89 43 1e          	mov    %ax,0x1e(%ebx)
    5115:	8b 45 10             	mov    0x10(%ebp),%eax
    5118:	66 89 43 20          	mov    %ax,0x20(%ebx)
    511c:	8d 74 26 00          	lea    0x0(%esi,%eiz,1),%esi
    5120:	0f b7 43 02          	movzwl 0x2(%ebx),%eax
    5124:	c7 04 24 1c 14 00 00 	movl   $0x141c,(%esp)
    512b:	89 44 24 04          	mov    %eax,0x4(%esp)
    512f:	e8 fc ff ff ff       	call   5130 <AddModSrb.isra.5+0xc0>
    5134:	85 db                	test   %ebx,%ebx
    5136:	74 28                	je     5160 <AddModSrb.isra.5+0xf0>
    5138:	0f b6 43 01          	movzbl 0x1(%ebx),%eax
    513c:	c7 04 24 64 14 00 00 	movl   $0x1464,(%esp)
    5143:	89 44 24 04          	mov    %eax,0x4(%esp)
    5147:	e8 fc ff ff ff       	call   5148 <AddModSrb.isra.5+0xd8>
    514c:	c7 44 24 04 24 00 00 	movl   $0x24,0x4(%esp)
    5153:	00 
    5154:	c7 04 24 a4 14 00 00 	movl   $0x14a4,(%esp)
    515b:	e8 fc ff ff ff       	call   515c <AddModSrb.isra.5+0xec>
    5160:	83 7d 30 01          	cmpl   $0x1,0x30(%ebp)
    5164:	89 d9                	mov    %ebx,%ecx
    5166:	b8 01 00 00 00       	mov    $0x1,%eax
    516b:	c7 04 24 24 00 00 00 	movl   $0x24,(%esp)
    5172:	19 d2                	sbb    %edx,%edx
    5174:	83 e2 53             	and    $0x53,%edx
    5177:	83 c2 02             	add    $0x2,%edx
    517a:	e8 fc ff ff ff       	call   517b <AddModSrb.isra.5+0x10b>
    517f:	89 f1                	mov    %esi,%ecx
    5181:	ba 11 00 00 00       	mov    $0x11,%edx
    5186:	b8 01 00 00 00       	mov    $0x1,%eax
    518b:	c7 04 24 15 00 00 00 	movl   $0x15,(%esp)
    5192:	e8 fc ff ff ff       	call   5193 <AddModSrb.isra.5+0x123>
    5197:	89 d8                	mov    %ebx,%eax
    5199:	e8 fc ff ff ff       	call   519a <AddModSrb.isra.5+0x12a>
    519e:	89 f0                	mov    %esi,%eax
    51a0:	e8 fc ff ff ff       	call   51a1 <AddModSrb.isra.5+0x131>
    51a5:	83 c4 10             	add    $0x10,%esp
    51a8:	5b                   	pop    %ebx
    51a9:	5e                   	pop    %esi
    51aa:	5f                   	pop    %edi
    51ab:	5d                   	pop    %ebp
    51ac:	c3                   	ret    
    51ad:	8d 76 00             	lea    0x0(%esi),%esi
    51b0:	83 ff 03             	cmp    $0x3,%edi
    51b3:	74 23                	je     51d8 <AddModSrb.isra.5+0x168>
    51b5:	83 ff 04             	cmp    $0x4,%edi
    51b8:	0f 85 62 ff ff ff    	jne    5120 <AddModSrb.isra.5+0xb0>
    51be:	0f b7 45 08          	movzwl 0x8(%ebp),%eax
    51c2:	66 89 43 04          	mov    %ax,0x4(%ebx)
    51c6:	8b 45 0c             	mov    0xc(%ebp),%eax
    51c9:	89 43 08             	mov    %eax,0x8(%ebx)
    51cc:	e9 4f ff ff ff       	jmp    5120 <AddModSrb.isra.5+0xb0>
    51d1:	8d b4 26 00 00 00 00 	lea    0x0(%esi,%eiz,1),%esi
    51d8:	66 89 4b 0c          	mov    %cx,0xc(%ebx)
    51dc:	e9 3f ff ff ff       	jmp    5120 <AddModSrb.isra.5+0xb0>
    51e1:	8d b4 26 00 00 00 00 	lea    0x0(%esi,%eiz,1),%esi
    51e8:	0f b7 45 08          	movzwl 0x8(%ebp),%eax
    51ec:	66 89 4b 0c          	mov    %cx,0xc(%ebx)
    51f0:	66 89 43 04          	mov    %ax,0x4(%ebx)
    51f4:	8b 45 0c             	mov    0xc(%ebp),%eax
    51f7:	89 43 08             	mov    %eax,0x8(%ebx)
    51fa:	e9 21 ff ff ff       	jmp    5120 <AddModSrb.isra.5+0xb0>
    51ff:	90                   	nop

00005200 <SetRrcConnReconfigmessage>:
    5200:	55                   	push   %ebp
    5201:	89 e5                	mov    %esp,%ebp
    5203:	81 ec 30 09 00 00    	sub    $0x930,%esp
    5209:	89 5d f4             	mov    %ebx,-0xc(%ebp)
    520c:	89 75 f8             	mov    %esi,-0x8(%ebp)
    520f:	89 7d fc             	mov    %edi,-0x4(%ebp)
    5212:	e8 fc ff ff ff       	call   5213 <SetRrcConnReconfigmessage+0x13>
    5217:	31 c0                	xor    %eax,%eax
    5219:	c7 44 05 d8 00 00 00 	movl   $0x0,-0x28(%ebp,%eax,1)
    5220:	00 
    5221:	83 c0 04             	add    $0x4,%eax
    5224:	83 f8 1c             	cmp    $0x1c,%eax
    5227:	72 f0                	jb     5219 <SetRrcConnReconfigmessage+0x19>
    5229:	8b 45 e8             	mov    -0x18(%ebp),%eax
    522c:	8d bd f8 fe ff ff    	lea    -0x108(%ebp),%edi
    5232:	8b 4d ec             	mov    -0x14(%ebp),%ecx
    5235:	8b 55 dc             	mov    -0x24(%ebp),%edx
    5238:	8b 5d e0             	mov    -0x20(%ebp),%ebx
    523b:	89 85 50 ff ff ff    	mov    %eax,-0xb0(%ebp)
    5241:	8b 45 f0             	mov    -0x10(%ebp),%eax
    5244:	89 8d 54 ff ff ff    	mov    %ecx,-0xac(%ebp)
    524a:	8b 4d e8             	mov    -0x18(%ebp),%ecx
    524d:	8b 75 e4             	mov    -0x1c(%ebp),%esi
    5250:	89 95 44 ff ff ff    	mov    %edx,-0xbc(%ebp)
    5256:	89 85 58 ff ff ff    	mov    %eax,-0xa8(%ebp)
    525c:	8b 45 ec             	mov    -0x14(%ebp),%eax
    525f:	89 4d 88             	mov    %ecx,-0x78(%ebp)
    5262:	8b 4d f0             	mov    -0x10(%ebp),%ecx
    5265:	89 9d 48 ff ff ff    	mov    %ebx,-0xb8(%ebp)
    526b:	89 b5 4c ff ff ff    	mov    %esi,-0xb4(%ebp)
    5271:	89 45 8c             	mov    %eax,-0x74(%ebp)
    5274:	31 c0                	xor    %eax,%eax
    5276:	89 4d 90             	mov    %ecx,-0x70(%ebp)
    5279:	b9 10 00 00 00       	mov    $0x10,%ecx
    527e:	f3 ab                	rep stos %eax,%es:(%edi)
    5280:	8b 4d e8             	mov    -0x18(%ebp),%ecx
    5283:	8d bd c0 fb ff ff    	lea    -0x440(%ebp),%edi
    5289:	89 95 7c ff ff ff    	mov    %edx,-0x84(%ebp)
    528f:	89 5d 80             	mov    %ebx,-0x80(%ebp)
    5292:	89 75 84             	mov    %esi,-0x7c(%ebp)
    5295:	89 8d 14 ff ff ff    	mov    %ecx,-0xec(%ebp)
    529b:	8b 4d ec             	mov    -0x14(%ebp),%ecx
    529e:	89 95 08 ff ff ff    	mov    %edx,-0xf8(%ebp)
    52a4:	89 9d 0c ff ff ff    	mov    %ebx,-0xf4(%ebp)
    52aa:	89 b5 10 ff ff ff    	mov    %esi,-0xf0(%ebp)
    52b0:	89 8d 18 ff ff ff    	mov    %ecx,-0xe8(%ebp)
    52b6:	8b 4d f0             	mov    -0x10(%ebp),%ecx
    52b9:	c7 45 d8 01 00 00 00 	movl   $0x1,-0x28(%ebp)
    52c0:	c7 85 38 ff ff ff 01 	movl   $0x1,-0xc8(%ebp)
    52c7:	00 00 00 
    52ca:	89 8d 1c ff ff ff    	mov    %ecx,-0xe4(%ebp)
    52d0:	c6 85 3c ff ff ff 01 	movb   $0x1,-0xc4(%ebp)
    52d7:	8b 8d 3c ff ff ff    	mov    -0xc4(%ebp),%ecx
    52dd:	c7 85 6a ff ff ff 00 	movl   $0x0,-0x96(%ebp)
    52e4:	00 00 00 
    52e7:	c6 85 74 ff ff ff 01 	movb   $0x1,-0x8c(%ebp)
    52ee:	89 95 94 fe ff ff    	mov    %edx,-0x16c(%ebp)
    52f4:	89 8d 8c fe ff ff    	mov    %ecx,-0x174(%ebp)
    52fa:	8b 4d e8             	mov    -0x18(%ebp),%ecx
    52fd:	89 9d 98 fe ff ff    	mov    %ebx,-0x168(%ebp)
    5303:	89 b5 9c fe ff ff    	mov    %esi,-0x164(%ebp)
    5309:	89 95 cc fe ff ff    	mov    %edx,-0x134(%ebp)
    530f:	89 8d a0 fe ff ff    	mov    %ecx,-0x160(%ebp)
    5315:	8b 4d ec             	mov    -0x14(%ebp),%ecx
    5318:	89 9d d0 fe ff ff    	mov    %ebx,-0x130(%ebp)
    531e:	c7 85 40 ff ff ff 01 	movl   $0x1,-0xc0(%ebp)
    5325:	00 00 00 
    5328:	c6 85 5c ff ff ff 01 	movb   $0x1,-0xa4(%ebp)
    532f:	89 8d a4 fe ff ff    	mov    %ecx,-0x15c(%ebp)
    5335:	8b 4d f0             	mov    -0x10(%ebp),%ecx
    5338:	c6 85 5d ff ff ff 01 	movb   $0x1,-0xa3(%ebp)
    533f:	c7 85 5e ff ff ff 00 	movl   $0x0,-0xa2(%ebp)
    5346:	00 00 00 
    5349:	c7 85 62 ff ff ff 00 	movl   $0x0,-0x9e(%ebp)
    5350:	00 00 00 
    5353:	89 8d a8 fe ff ff    	mov    %ecx,-0x158(%ebp)
    5359:	8b 8d 6c ff ff ff    	mov    -0x94(%ebp),%ecx
    535f:	c7 85 66 ff ff ff 00 	movl   $0x0,-0x9a(%ebp)
    5366:	00 00 00 
    5369:	c7 85 70 ff ff ff 02 	movl   $0x2,-0x90(%ebp)
    5370:	00 00 00 
    5373:	c7 85 78 ff ff ff 01 	movl   $0x1,-0x88(%ebp)
    537a:	00 00 00 
    537d:	89 8d bc fe ff ff    	mov    %ecx,-0x144(%ebp)
    5383:	8b 8d 74 ff ff ff    	mov    -0x8c(%ebp),%ecx
    5389:	c6 45 94 01          	movb   $0x1,-0x6c(%ebp)
    538d:	c6 45 95 01          	movb   $0x1,-0x6b(%ebp)
    5391:	c7 45 96 00 00 00 00 	movl   $0x0,-0x6a(%ebp)
    5398:	89 8d c4 fe ff ff    	mov    %ecx,-0x13c(%ebp)
    539e:	c7 45 9a 00 00 00 00 	movl   $0x0,-0x66(%ebp)
    53a5:	c7 45 9e 00 00 00 00 	movl   $0x0,-0x62(%ebp)
    53ac:	c7 45 a2 00 00 00 00 	movl   $0x0,-0x5e(%ebp)
    53b3:	89 b5 d4 fe ff ff    	mov    %esi,-0x12c(%ebp)
    53b9:	8b 4d e8             	mov    -0x18(%ebp),%ecx
    53bc:	c6 85 24 ff ff ff 01 	movb   $0x1,-0xdc(%ebp)
    53c3:	c6 85 25 ff ff ff 01 	movb   $0x1,-0xdb(%ebp)
    53ca:	c6 85 00 ff ff ff 01 	movb   $0x1,-0x100(%ebp)
    53d1:	89 8d d8 fe ff ff    	mov    %ecx,-0x128(%ebp)
    53d7:	8b 4d ec             	mov    -0x14(%ebp),%ecx
    53da:	c7 85 fc fe ff ff 04 	movl   $0x4,-0x104(%ebp)
    53e1:	00 00 00 
    53e4:	c7 85 04 ff ff ff 01 	movl   $0x1,-0xfc(%ebp)
    53eb:	00 00 00 
    53ee:	89 8d dc fe ff ff    	mov    %ecx,-0x124(%ebp)
    53f4:	8b 4d f0             	mov    -0x10(%ebp),%ecx
    53f7:	89 8d e0 fe ff ff    	mov    %ecx,-0x120(%ebp)
    53fd:	8b 4d a4             	mov    -0x5c(%ebp),%ecx
    5400:	89 8d f4 fe ff ff    	mov    %ecx,-0x10c(%ebp)
    5406:	b9 b1 00 00 00       	mov    $0xb1,%ecx
    540b:	f3 ab                	rep stos %eax,%es:(%edi)
    540d:	8b 8d 00 ff ff ff    	mov    -0x100(%ebp),%ecx
    5413:	8d 7d a8             	lea    -0x58(%ebp),%edi
    5416:	89 95 d4 fb ff ff    	mov    %edx,-0x42c(%ebp)
    541c:	8b 55 e8             	mov    -0x18(%ebp),%edx
    541f:	89 9d d8 fb ff ff    	mov    %ebx,-0x428(%ebp)
    5425:	89 b5 dc fb ff ff    	mov    %esi,-0x424(%ebp)
    542b:	8d b5 84 fe ff ff    	lea    -0x17c(%ebp),%esi
    5431:	89 8d cc fb ff ff    	mov    %ecx,-0x434(%ebp)
    5437:	b9 0c 00 00 00       	mov    $0xc,%ecx
    543c:	89 95 e0 fb ff ff    	mov    %edx,-0x420(%ebp)
    5442:	8b 55 ec             	mov    -0x14(%ebp),%edx
    5445:	c7 85 c4 fb ff ff 00 	movl   $0x0,-0x43c(%ebp)
    544c:	00 00 00 
    544f:	c7 85 c8 fb ff ff 04 	movl   $0x4,-0x438(%ebp)
    5456:	00 00 00 
    5459:	c7 85 d0 fb ff ff 01 	movl   $0x1,-0x430(%ebp)
    5460:	00 00 00 
    5463:	89 95 e4 fb ff ff    	mov    %edx,-0x41c(%ebp)
    5469:	8b 55 f0             	mov    -0x10(%ebp),%edx
    546c:	89 95 e8 fb ff ff    	mov    %edx,-0x418(%ebp)
    5472:	8b 95 20 ff ff ff    	mov    -0xe0(%ebp),%edx
    5478:	89 95 ec fb ff ff    	mov    %edx,-0x414(%ebp)
    547e:	8b 95 24 ff ff ff    	mov    -0xdc(%ebp),%edx
    5484:	89 95 f0 fb ff ff    	mov    %edx,-0x410(%ebp)
    548a:	8b 95 28 ff ff ff    	mov    -0xd8(%ebp),%edx
    5490:	89 95 f4 fb ff ff    	mov    %edx,-0x40c(%ebp)
    5496:	8b 95 2c ff ff ff    	mov    -0xd4(%ebp),%edx
    549c:	f3 ab                	rep stos %eax,%es:(%edi)
    549e:	8d bd d4 f6 ff ff    	lea    -0x92c(%ebp),%edi
    54a4:	c7 85 84 fe ff ff 02 	movl   $0x2,-0x17c(%ebp)
    54ab:	00 00 00 
    54ae:	c7 85 88 fe ff ff 01 	movl   $0x1,-0x178(%ebp)
    54b5:	00 00 00 
    54b8:	89 95 f8 fb ff ff    	mov    %edx,-0x408(%ebp)
    54be:	8b 95 30 ff ff ff    	mov    -0xd0(%ebp),%edx
    54c4:	c6 85 8c fe ff ff 01 	movb   $0x1,-0x174(%ebp)
    54cb:	c7 85 90 fe ff ff 01 	movl   $0x1,-0x170(%ebp)
    54d2:	00 00 00 
    54d5:	66 b9 3b 01          	mov    $0x13b,%cx
    54d9:	f3 ab                	rep stos %eax,%es:(%edi)
    54db:	8d bd d8 f6 ff ff    	lea    -0x928(%ebp),%edi
    54e1:	c6 85 ac fe ff ff 01 	movb   $0x1,-0x154(%ebp)
    54e8:	c6 85 ad fe ff ff 01 	movb   $0x1,-0x153(%ebp)
    54ef:	c7 85 ae fe ff ff 00 	movl   $0x0,-0x152(%ebp)
    54f6:	00 00 00 
    54f9:	c7 85 b2 fe ff ff 00 	movl   $0x0,-0x14e(%ebp)
    5500:	00 00 00 
    5503:	c7 85 b6 fe ff ff 00 	movl   $0x0,-0x14a(%ebp)
    550a:	00 00 00 
    550d:	c7 85 ba fe ff ff 00 	movl   $0x0,-0x146(%ebp)
    5514:	00 00 00 
    5517:	b1 1d                	mov    $0x1d,%cl
    5519:	c7 85 c0 fe ff ff 02 	movl   $0x2,-0x140(%ebp)
    5520:	00 00 00 
    5523:	c6 85 c4 fe ff ff 01 	movb   $0x1,-0x13c(%ebp)
    552a:	c7 85 c8 fe ff ff 01 	movl   $0x1,-0x138(%ebp)
    5531:	00 00 00 
    5534:	c6 85 e4 fe ff ff 01 	movb   $0x1,-0x11c(%ebp)
    553b:	c6 85 e5 fe ff ff 01 	movb   $0x1,-0x11b(%ebp)
    5542:	c7 85 e6 fe ff ff 00 	movl   $0x0,-0x11a(%ebp)
    5549:	00 00 00 
    554c:	c7 85 ea fe ff ff 00 	movl   $0x0,-0x116(%ebp)
    5553:	00 00 00 
    5556:	c7 85 ee fe ff ff 00 	movl   $0x0,-0x112(%ebp)
    555d:	00 00 00 
    5560:	c7 85 f2 fe ff ff 00 	movl   $0x0,-0x10e(%ebp)
    5567:	00 00 00 
    556a:	f3 a5                	rep movsl %ds:(%esi),%es:(%edi)
    556c:	8d bd 50 f7 ff ff    	lea    -0x8b0(%ebp),%edi
    5572:	89 95 fc fb ff ff    	mov    %edx,-0x404(%ebp)
    5578:	8b 95 34 ff ff ff    	mov    -0xcc(%ebp),%edx
    557e:	8d b5 c0 fb ff ff    	lea    -0x440(%ebp),%esi
    5584:	c7 85 c0 fb ff ff 01 	movl   $0x1,-0x440(%ebp)
    558b:	00 00 00 
    558e:	c6 85 cc fb ff ff 01 	movb   $0x1,-0x434(%ebp)
    5595:	c6 85 f0 fb ff ff 01 	movb   $0x1,-0x410(%ebp)
    559c:	89 95 00 fc ff ff    	mov    %edx,-0x400(%ebp)
    55a2:	c6 85 f1 fb ff ff 01 	movb   $0x1,-0x40f(%ebp)
    55a9:	b1 b1                	mov    $0xb1,%cl
    55ab:	f3 a5                	rep movsl %ds:(%esi),%es:(%edi)
    55ad:	8b 45 b0             	mov    -0x50(%ebp),%eax
    55b0:	8d b5 d4 f6 ff ff    	lea    -0x92c(%ebp),%esi
    55b6:	c7 45 a8 01 00 00 00 	movl   $0x1,-0x58(%ebp)
    55bd:	c7 45 ac 04 00 00 00 	movl   $0x4,-0x54(%ebp)
    55c4:	c7 85 18 fa ff ff 01 	movl   $0x1,-0x5e8(%ebp)
    55cb:	00 00 00 
    55ce:	89 85 20 fa ff ff    	mov    %eax,-0x5e0(%ebp)
    55d4:	8b 45 b4             	mov    -0x4c(%ebp),%eax
    55d7:	c7 85 1c fa ff ff 04 	movl   $0x4,-0x5e4(%ebp)
    55de:	00 00 00 
    55e1:	89 85 24 fa ff ff    	mov    %eax,-0x5dc(%ebp)
    55e7:	8b 45 b8             	mov    -0x48(%ebp),%eax
    55ea:	89 85 28 fa ff ff    	mov    %eax,-0x5d8(%ebp)
    55f0:	8b 45 bc             	mov    -0x44(%ebp),%eax
    55f3:	89 85 2c fa ff ff    	mov    %eax,-0x5d4(%ebp)
    55f9:	8b 45 c0             	mov    -0x40(%ebp),%eax
    55fc:	89 85 30 fa ff ff    	mov    %eax,-0x5d0(%ebp)
    5602:	8b 45 c4             	mov    -0x3c(%ebp),%eax
    5605:	89 85 34 fa ff ff    	mov    %eax,-0x5cc(%ebp)
    560b:	8b 45 c8             	mov    -0x38(%ebp),%eax
    560e:	89 85 38 fa ff ff    	mov    %eax,-0x5c8(%ebp)
    5614:	8b 45 cc             	mov    -0x34(%ebp),%eax
    5617:	89 85 3c fa ff ff    	mov    %eax,-0x5c4(%ebp)
    561d:	8b 45 d0             	mov    -0x30(%ebp),%eax
    5620:	89 85 40 fa ff ff    	mov    %eax,-0x5c0(%ebp)
    5626:	8b 45 d4             	mov    -0x2c(%ebp),%eax
    5629:	89 85 44 fa ff ff    	mov    %eax,-0x5bc(%ebp)
    562f:	b8 f0 04 00 00       	mov    $0x4f0,%eax
    5634:	e8 fc ff ff ff       	call   5635 <SetRrcConnReconfigmessage+0x435>
    5639:	b9 3b 01 00 00       	mov    $0x13b,%ecx
    563e:	c6 40 01 01          	movb   $0x1,0x1(%eax)
    5642:	8d 78 04             	lea    0x4(%eax),%edi
    5645:	89 c3                	mov    %eax,%ebx
    5647:	c6 00 01             	movb   $0x1,(%eax)
    564a:	f3 a5                	rep movsl %ds:(%esi),%es:(%edi)
    564c:	c7 40 0c 01 00 00 00 	movl   $0x1,0xc(%eax)
    5653:	c6 40 10 01          	movb   $0x1,0x10(%eax)
    5657:	c6 40 30 01          	movb   $0x1,0x30(%eax)
    565b:	c7 40 44 02 00 00 00 	movl   $0x2,0x44(%eax)
    5662:	c6 40 48 01          	movb   $0x1,0x48(%eax)
    5666:	c6 40 68 01          	movb   $0x1,0x68(%eax)
    566a:	c7 80 88 00 00 00 04 	movl   $0x4,0x88(%eax)
    5671:	00 00 00 
    5674:	c6 80 8c 00 00 00 01 	movb   $0x1,0x8c(%eax)
    567b:	c6 80 b0 00 00 00 01 	movb   $0x1,0xb0(%eax)
    5682:	c6 40 04 01          	movb   $0x1,0x4(%eax)
    5686:	c7 40 08 02 00 00 00 	movl   $0x2,0x8(%eax)
    568d:	c6 40 7c 01          	movb   $0x1,0x7c(%eax)
    5691:	c7 80 80 00 00 00 01 	movl   $0x1,0x80(%eax)
    5698:	00 00 00 
    569b:	c6 80 44 03 00 00 01 	movb   $0x1,0x344(%eax)
    56a2:	c7 80 48 03 00 00 01 	movl   $0x1,0x348(%eax)
    56a9:	00 00 00 
    56ac:	c7 80 4c 03 00 00 04 	movl   $0x4,0x34c(%eax)
    56b3:	00 00 00 
    56b6:	c7 04 24 e8 14 00 00 	movl   $0x14e8,(%esp)
    56bd:	e8 fc ff ff ff       	call   56be <SetRrcConnReconfigmessage+0x4be>
    56c2:	89 d8                	mov    %ebx,%eax
    56c4:	8b 75 f8             	mov    -0x8(%ebp),%esi
    56c7:	8b 5d f4             	mov    -0xc(%ebp),%ebx
    56ca:	8b 7d fc             	mov    -0x4(%ebp),%edi
    56cd:	89 ec                	mov    %ebp,%esp
    56cf:	5d                   	pop    %ebp
    56d0:	c3                   	ret    
    56d1:	eb 0d                	jmp    56e0 <ApplySrbToAdd>
    56d3:	90                   	nop
    56d4:	90                   	nop
    56d5:	90                   	nop
    56d6:	90                   	nop
    56d7:	90                   	nop
    56d8:	90                   	nop
    56d9:	90                   	nop
    56da:	90                   	nop
    56db:	90                   	nop
    56dc:	90                   	nop
    56dd:	90                   	nop
    56de:	90                   	nop
    56df:	90                   	nop

000056e0 <ApplySrbToAdd>:
    56e0:	55                   	push   %ebp
    56e1:	89 e5                	mov    %esp,%ebp
    56e3:	57                   	push   %edi
    56e4:	56                   	push   %esi
    56e5:	53                   	push   %ebx
    56e6:	81 ec 8c 00 00 00    	sub    $0x8c,%esp
    56ec:	e8 fc ff ff ff       	call   56ed <ApplySrbToAdd+0xd>
    56f1:	8b 55 08             	mov    0x8(%ebp),%edx
    56f4:	85 d2                	test   %edx,%edx
    56f6:	0f 84 a6 01 00 00    	je     58a2 <ApplySrbToAdd+0x1c2>
    56fc:	8d 5d 0c             	lea    0xc(%ebp),%ebx
    56ff:	31 ff                	xor    %edi,%edi
    5701:	8b 03                	mov    (%ebx),%eax
    5703:	89 7c 24 04          	mov    %edi,0x4(%esp)
    5707:	c7 04 24 34 15 00 00 	movl   $0x1534,(%esp)
    570e:	89 44 24 08          	mov    %eax,0x8(%esp)
    5712:	e8 fc ff ff ff       	call   5713 <ApplySrbToAdd+0x33>
    5717:	6b d7 38             	imul   $0x38,%edi,%edx
    571a:	8d 74 15 0c          	lea    0xc(%ebp,%edx,1),%esi
    571e:	89 55 94             	mov    %edx,-0x6c(%ebp)
    5721:	89 74 24 04          	mov    %esi,0x4(%esp)
    5725:	c7 04 24 77 02 00 00 	movl   $0x277,(%esp)
    572c:	e8 fc ff ff ff       	call   572d <ApplySrbToAdd+0x4d>
    5731:	8b 03                	mov    (%ebx),%eax
    5733:	8b 55 94             	mov    -0x6c(%ebp),%edx
    5736:	89 45 bc             	mov    %eax,-0x44(%ebp)
    5739:	8b 43 04             	mov    0x4(%ebx),%eax
    573c:	8b 54 15 0c          	mov    0xc(%ebp,%edx,1),%edx
    5740:	89 45 c0             	mov    %eax,-0x40(%ebp)
    5743:	8b 43 08             	mov    0x8(%ebx),%eax
    5746:	89 55 b8             	mov    %edx,-0x48(%ebp)
    5749:	8b 56 0c             	mov    0xc(%esi),%edx
    574c:	89 45 c4             	mov    %eax,-0x3c(%ebp)
    574f:	8b 43 0c             	mov    0xc(%ebx),%eax
    5752:	89 45 c8             	mov    %eax,-0x38(%ebp)
    5755:	8b 43 10             	mov    0x10(%ebx),%eax
    5758:	89 45 cc             	mov    %eax,-0x34(%ebp)
    575b:	8b 43 14             	mov    0x14(%ebx),%eax
    575e:	89 45 d0             	mov    %eax,-0x30(%ebp)
    5761:	8b 43 18             	mov    0x18(%ebx),%eax
    5764:	89 45 d4             	mov    %eax,-0x2c(%ebp)
    5767:	8b 43 1c             	mov    0x1c(%ebx),%eax
    576a:	89 45 d8             	mov    %eax,-0x28(%ebp)
    576d:	8b 43 20             	mov    0x20(%ebx),%eax
    5770:	89 45 dc             	mov    %eax,-0x24(%ebp)
    5773:	8b 43 24             	mov    0x24(%ebx),%eax
    5776:	89 45 e0             	mov    %eax,-0x20(%ebp)
    5779:	8b 43 28             	mov    0x28(%ebx),%eax
    577c:	89 45 e4             	mov    %eax,-0x1c(%ebp)
    577f:	8b 43 2c             	mov    0x2c(%ebx),%eax
    5782:	89 45 e8             	mov    %eax,-0x18(%ebp)
    5785:	8b 43 30             	mov    0x30(%ebx),%eax
    5788:	89 45 ec             	mov    %eax,-0x14(%ebp)
    578b:	8b 43 34             	mov    0x34(%ebx),%eax
    578e:	89 45 f0             	mov    %eax,-0x10(%ebp)
    5791:	8b 46 08             	mov    0x8(%esi),%eax
    5794:	89 45 b0             	mov    %eax,-0x50(%ebp)
    5797:	89 55 ac             	mov    %edx,-0x54(%ebp)
    579a:	8b 46 10             	mov    0x10(%esi),%eax
    579d:	8b 56 14             	mov    0x14(%esi),%edx
    57a0:	89 45 a8             	mov    %eax,-0x58(%ebp)
    57a3:	8b 46 18             	mov    0x18(%esi),%eax
    57a6:	89 55 a4             	mov    %edx,-0x5c(%ebp)
    57a9:	8b 56 1c             	mov    0x1c(%esi),%edx
    57ac:	8b 76 20             	mov    0x20(%esi),%esi
    57af:	89 45 a0             	mov    %eax,-0x60(%ebp)
    57b2:	8b 45 b8             	mov    -0x48(%ebp),%eax
    57b5:	89 55 9c             	mov    %edx,-0x64(%ebp)
    57b8:	89 75 98             	mov    %esi,-0x68(%ebp)
    57bb:	83 e8 01             	sub    $0x1,%eax
    57be:	8b 34 85 00 00 00 00 	mov    0x0(,%eax,4),%esi
    57c5:	89 45 b4             	mov    %eax,-0x4c(%ebp)
    57c8:	85 f6                	test   %esi,%esi
    57ca:	0f 84 f0 00 00 00    	je     58c0 <ApplySrbToAdd+0x1e0>
    57d0:	8b 45 e1             	mov    -0x1f(%ebp),%eax
    57d3:	8b 55 9c             	mov    -0x64(%ebp),%edx
    57d6:	8b 4d ac             	mov    -0x54(%ebp),%ecx
    57d9:	c7 44 24 28 01 00 00 	movl   $0x1,0x28(%esp)
    57e0:	00 
    57e1:	89 44 24 14          	mov    %eax,0x14(%esp)
    57e5:	8b 45 e5             	mov    -0x1b(%ebp),%eax
    57e8:	89 54 24 0c          	mov    %edx,0xc(%esp)
    57ec:	8b 55 a4             	mov    -0x5c(%ebp),%edx
    57ef:	89 44 24 18          	mov    %eax,0x18(%esp)
    57f3:	8b 45 e9             	mov    -0x17(%ebp),%eax
    57f6:	89 54 24 04          	mov    %edx,0x4(%esp)
    57fa:	8b 55 b0             	mov    -0x50(%ebp),%edx
    57fd:	89 44 24 1c          	mov    %eax,0x1c(%esp)
    5801:	8b 45 ed             	mov    -0x13(%ebp),%eax
    5804:	89 44 24 20          	mov    %eax,0x20(%esp)
    5808:	0f b6 45 f1          	movzbl -0xf(%ebp),%eax
    580c:	88 44 24 24          	mov    %al,0x24(%esp)
    5810:	8b 45 98             	mov    -0x68(%ebp),%eax
    5813:	89 44 24 10          	mov    %eax,0x10(%esp)
    5817:	8b 45 a0             	mov    -0x60(%ebp),%eax
    581a:	89 44 24 08          	mov    %eax,0x8(%esp)
    581e:	8b 45 a8             	mov    -0x58(%ebp),%eax
    5821:	89 04 24             	mov    %eax,(%esp)
    5824:	8b 45 b8             	mov    -0x48(%ebp),%eax
    5827:	e8 44 f8 ff ff       	call   5070 <AddModSrb.isra.5>
    582c:	8b 45 ac             	mov    -0x54(%ebp),%eax
    582f:	8b 55 b0             	mov    -0x50(%ebp),%edx
    5832:	89 46 08             	mov    %eax,0x8(%esi)
    5835:	8b 45 a4             	mov    -0x5c(%ebp),%eax
    5838:	89 56 04             	mov    %edx,0x4(%esi)
    583b:	8b 55 a8             	mov    -0x58(%ebp),%edx
    583e:	89 46 10             	mov    %eax,0x10(%esi)
    5841:	8b 45 9c             	mov    -0x64(%ebp),%eax
    5844:	89 56 0c             	mov    %edx,0xc(%esi)
    5847:	8b 55 a0             	mov    -0x60(%ebp),%edx
    584a:	89 46 18             	mov    %eax,0x18(%esi)
    584d:	8b 45 e1             	mov    -0x1f(%ebp),%eax
    5850:	89 56 14             	mov    %edx,0x14(%esi)
    5853:	8b 55 98             	mov    -0x68(%ebp),%edx
    5856:	89 46 21             	mov    %eax,0x21(%esi)
    5859:	8b 45 e5             	mov    -0x1b(%ebp),%eax
    585c:	89 56 1c             	mov    %edx,0x1c(%esi)
    585f:	8b 55 b4             	mov    -0x4c(%ebp),%edx
    5862:	89 46 25             	mov    %eax,0x25(%esi)
    5865:	8b 45 e9             	mov    -0x17(%ebp),%eax
    5868:	89 46 29             	mov    %eax,0x29(%esi)
    586b:	8b 45 ed             	mov    -0x13(%ebp),%eax
    586e:	89 46 2d             	mov    %eax,0x2d(%esi)
    5871:	0f b6 45 f1          	movzbl -0xf(%ebp),%eax
    5875:	88 46 31             	mov    %al,0x31(%esi)
    5878:	8b 04 95 00 00 00 00 	mov    0x0(,%edx,4),%eax
    587f:	0f b6 40 01          	movzbl 0x1(%eax),%eax
    5883:	c7 04 24 84 15 00 00 	movl   $0x1584,(%esp)
    588a:	89 44 24 04          	mov    %eax,0x4(%esp)
    588e:	e8 fc ff ff ff       	call   588f <ApplySrbToAdd+0x1af>
    5893:	83 c7 01             	add    $0x1,%edi
    5896:	83 c3 38             	add    $0x38,%ebx
    5899:	3b 7d 08             	cmp    0x8(%ebp),%edi
    589c:	0f 82 5f fe ff ff    	jb     5701 <ApplySrbToAdd+0x21>
    58a2:	c7 04 24 b4 15 00 00 	movl   $0x15b4,(%esp)
    58a9:	e8 fc ff ff ff       	call   58aa <ApplySrbToAdd+0x1ca>
    58ae:	81 c4 8c 00 00 00    	add    $0x8c,%esp
    58b4:	5b                   	pop    %ebx
    58b5:	5e                   	pop    %esi
    58b6:	5f                   	pop    %edi
    58b7:	5d                   	pop    %ebp
    58b8:	c3                   	ret    
    58b9:	8d b4 26 00 00 00 00 	lea    0x0(%esi,%eiz,1),%esi
    58c0:	b8 34 00 00 00       	mov    $0x34,%eax
    58c5:	e8 fc ff ff ff       	call   58c6 <ApplySrbToAdd+0x1e6>
    58ca:	8b 55 98             	mov    -0x68(%ebp),%edx
    58cd:	8b 4d ac             	mov    -0x54(%ebp),%ecx
    58d0:	89 c6                	mov    %eax,%esi
    58d2:	8b 45 e1             	mov    -0x1f(%ebp),%eax
    58d5:	89 54 24 10          	mov    %edx,0x10(%esp)
    58d9:	8b 55 a0             	mov    -0x60(%ebp),%edx
    58dc:	c7 44 24 28 00 00 00 	movl   $0x0,0x28(%esp)
    58e3:	00 
    58e4:	89 44 24 14          	mov    %eax,0x14(%esp)
    58e8:	8b 45 e5             	mov    -0x1b(%ebp),%eax
    58eb:	89 54 24 08          	mov    %edx,0x8(%esp)
    58ef:	8b 55 a8             	mov    -0x58(%ebp),%edx
    58f2:	89 44 24 18          	mov    %eax,0x18(%esp)
    58f6:	8b 45 e9             	mov    -0x17(%ebp),%eax
    58f9:	89 14 24             	mov    %edx,(%esp)
    58fc:	8b 55 b0             	mov    -0x50(%ebp),%edx
    58ff:	89 44 24 1c          	mov    %eax,0x1c(%esp)
    5903:	8b 45 ed             	mov    -0x13(%ebp),%eax
    5906:	89 44 24 20          	mov    %eax,0x20(%esp)
    590a:	0f b6 45 f1          	movzbl -0xf(%ebp),%eax
    590e:	88 44 24 24          	mov    %al,0x24(%esp)
    5912:	8b 45 9c             	mov    -0x64(%ebp),%eax
    5915:	89 44 24 0c          	mov    %eax,0xc(%esp)
    5919:	8b 45 a4             	mov    -0x5c(%ebp),%eax
    591c:	89 44 24 04          	mov    %eax,0x4(%esp)
    5920:	8b 45 b8             	mov    -0x48(%ebp),%eax
    5923:	e8 48 f7 ff ff       	call   5070 <AddModSrb.isra.5>
    5928:	0f b6 45 b8          	movzbl -0x48(%ebp),%eax
    592c:	8b 55 ac             	mov    -0x54(%ebp),%edx
    592f:	c6 06 01             	movb   $0x1,(%esi)
    5932:	88 46 01             	mov    %al,0x1(%esi)
    5935:	88 46 20             	mov    %al,0x20(%esi)
    5938:	8b 45 b0             	mov    -0x50(%ebp),%eax
    593b:	89 56 08             	mov    %edx,0x8(%esi)
    593e:	8b 55 a4             	mov    -0x5c(%ebp),%edx
    5941:	89 46 04             	mov    %eax,0x4(%esi)
    5944:	8b 45 a8             	mov    -0x58(%ebp),%eax
    5947:	89 56 10             	mov    %edx,0x10(%esi)
    594a:	8b 55 9c             	mov    -0x64(%ebp),%edx
    594d:	89 46 0c             	mov    %eax,0xc(%esi)
    5950:	8b 45 a0             	mov    -0x60(%ebp),%eax
    5953:	89 56 18             	mov    %edx,0x18(%esi)
    5956:	8b 55 b4             	mov    -0x4c(%ebp),%edx
    5959:	89 46 14             	mov    %eax,0x14(%esi)
    595c:	8b 45 98             	mov    -0x68(%ebp),%eax
    595f:	89 46 1c             	mov    %eax,0x1c(%esi)
    5962:	8b 45 e1             	mov    -0x1f(%ebp),%eax
    5965:	89 46 21             	mov    %eax,0x21(%esi)
    5968:	8b 45 e5             	mov    -0x1b(%ebp),%eax
    596b:	89 46 25             	mov    %eax,0x25(%esi)
    596e:	8b 45 e9             	mov    -0x17(%ebp),%eax
    5971:	89 46 29             	mov    %eax,0x29(%esi)
    5974:	8b 45 ed             	mov    -0x13(%ebp),%eax
    5977:	89 46 2d             	mov    %eax,0x2d(%esi)
    597a:	0f b6 45 f1          	movzbl -0xf(%ebp),%eax
    597e:	88 46 31             	mov    %al,0x31(%esi)
    5981:	89 34 95 00 00 00 00 	mov    %esi,0x0(,%edx,4)
    5988:	0f b6 46 01          	movzbl 0x1(%esi),%eax
    598c:	c7 04 24 58 15 00 00 	movl   $0x1558,(%esp)
    5993:	89 44 24 04          	mov    %eax,0x4(%esp)
    5997:	e8 fc ff ff ff       	call   5998 <ApplySrbToAdd+0x2b8>
    599c:	e9 f2 fe ff ff       	jmp    5893 <ApplySrbToAdd+0x1b3>
    59a1:	eb 0d                	jmp    59b0 <ApplySrbToRelease>
    59a3:	90                   	nop
    59a4:	90                   	nop
    59a5:	90                   	nop
    59a6:	90                   	nop
    59a7:	90                   	nop
    59a8:	90                   	nop
    59a9:	90                   	nop
    59aa:	90                   	nop
    59ab:	90                   	nop
    59ac:	90                   	nop
    59ad:	90                   	nop
    59ae:	90                   	nop
    59af:	90                   	nop

000059b0 <ApplySrbToRelease>:
    59b0:	55                   	push   %ebp
    59b1:	89 e5                	mov    %esp,%ebp
    59b3:	53                   	push   %ebx
    59b4:	83 ec 10             	sub    $0x10,%esp
    59b7:	e8 fc ff ff ff       	call   59b8 <ApplySrbToRelease+0x8>
    59bc:	31 db                	xor    %ebx,%ebx
    59be:	83 c3 01             	add    $0x1,%ebx
    59c1:	8b 0c 9d fc ff ff ff 	mov    -0x4(,%ebx,4),%ecx
    59c8:	89 5d f4             	mov    %ebx,-0xc(%ebp)
    59cb:	89 5d f8             	mov    %ebx,-0x8(%ebp)
    59ce:	85 c9                	test   %ecx,%ecx
    59d0:	74 5c                	je     5a2e <ApplySrbToRelease+0x7e>
    59d2:	8d 4d f4             	lea    -0xc(%ebp),%ecx
    59d5:	ba 52 00 00 00       	mov    $0x52,%edx
    59da:	b8 01 00 00 00       	mov    $0x1,%eax
    59df:	c7 04 24 04 00 00 00 	movl   $0x4,(%esp)
    59e6:	e8 fc ff ff ff       	call   59e7 <ApplySrbToRelease+0x37>
    59eb:	8d 4d f8             	lea    -0x8(%ebp),%ecx
    59ee:	ba 12 00 00 00       	mov    $0x12,%edx
    59f3:	b8 01 00 00 00       	mov    $0x1,%eax
    59f8:	c7 04 24 04 00 00 00 	movl   $0x4,(%esp)
    59ff:	e8 fc ff ff ff       	call   5a00 <ApplySrbToRelease+0x50>
    5a04:	8b 04 9d fc ff ff ff 	mov    -0x4(,%ebx,4),%eax
    5a0b:	e8 fc ff ff ff       	call   5a0c <ApplySrbToRelease+0x5c>
    5a10:	8b 45 f4             	mov    -0xc(%ebp),%eax
    5a13:	c7 04 9d fc ff ff ff 	movl   $0x0,-0x4(,%ebx,4)
    5a1a:	00 00 00 00 
    5a1e:	89 44 24 04          	mov    %eax,0x4(%esp)
    5a22:	c7 04 24 e8 15 00 00 	movl   $0x15e8,(%esp)
    5a29:	e8 fc ff ff ff       	call   5a2a <ApplySrbToRelease+0x7a>
    5a2e:	83 fb 02             	cmp    $0x2,%ebx
    5a31:	75 8b                	jne    59be <ApplySrbToRelease+0xe>
    5a33:	c7 04 24 18 16 00 00 	movl   $0x1618,(%esp)
    5a3a:	e8 fc ff ff ff       	call   5a3b <ApplySrbToRelease+0x8b>
    5a3f:	83 c4 10             	add    $0x10,%esp
    5a42:	5b                   	pop    %ebx
    5a43:	5d                   	pop    %ebp
    5a44:	c3                   	ret    
    5a45:	8d 74 26 00          	lea    0x0(%esi,%eiz,1),%esi
    5a49:	8d bc 27 00 00 00 00 	lea    0x0(%edi,%eiz,1),%edi

00005a50 <ApplyDrbToAdd>:
    5a50:	55                   	push   %ebp
    5a51:	89 e5                	mov    %esp,%ebp
    5a53:	57                   	push   %edi
    5a54:	56                   	push   %esi
    5a55:	53                   	push   %ebx
    5a56:	83 ec 78             	sub    $0x78,%esp
    5a59:	e8 fc ff ff ff       	call   5a5a <ApplyDrbToAdd+0xa>
    5a5e:	8b 5d 08             	mov    0x8(%ebp),%ebx
    5a61:	c7 04 24 50 16 00 00 	movl   $0x1650,(%esp)
    5a68:	89 5d bc             	mov    %ebx,-0x44(%ebp)
    5a6b:	89 5c 24 04          	mov    %ebx,0x4(%esp)
    5a6f:	e8 fc ff ff ff       	call   5a70 <ApplyDrbToAdd+0x20>
    5a74:	85 db                	test   %ebx,%ebx
    5a76:	0f 84 34 02 00 00    	je     5cb0 <ApplyDrbToAdd+0x260>
    5a7c:	31 ff                	xor    %edi,%edi
    5a7e:	e9 df 00 00 00       	jmp    5b62 <ApplyDrbToAdd+0x112>
    5a83:	90                   	nop
    5a84:	8d 74 26 00          	lea    0x0(%esi,%eiz,1),%esi
    5a88:	8b 45 e0             	mov    -0x20(%ebp),%eax
    5a8b:	83 c7 01             	add    $0x1,%edi
    5a8e:	88 4c 24 1c          	mov    %cl,0x1c(%esp)
    5a92:	8b 4d c0             	mov    -0x40(%ebp),%ecx
    5a95:	c7 44 24 34 01 00 00 	movl   $0x1,0x34(%esp)
    5a9c:	00 
    5a9d:	89 44 24 30          	mov    %eax,0x30(%esp)
    5aa1:	8b 45 e4             	mov    -0x1c(%ebp),%eax
    5aa4:	89 4c 24 18          	mov    %ecx,0x18(%esp)
    5aa8:	8b 4d c8             	mov    -0x38(%ebp),%ecx
    5aab:	89 44 24 2c          	mov    %eax,0x2c(%esp)
    5aaf:	8b 45 e8             	mov    -0x18(%ebp),%eax
    5ab2:	89 4c 24 10          	mov    %ecx,0x10(%esp)
    5ab6:	8b 4d d0             	mov    -0x30(%ebp),%ecx
    5ab9:	89 44 24 28          	mov    %eax,0x28(%esp)
    5abd:	8b 45 ec             	mov    -0x14(%ebp),%eax
    5ac0:	89 4c 24 08          	mov    %ecx,0x8(%esp)
    5ac4:	8b 4d d8             	mov    -0x28(%ebp),%ecx
    5ac7:	89 44 24 24          	mov    %eax,0x24(%esp)
    5acb:	0f b6 45 f3          	movzbl -0xd(%ebp),%eax
    5acf:	89 0c 24             	mov    %ecx,(%esp)
    5ad2:	8b 4d dc             	mov    -0x24(%ebp),%ecx
    5ad5:	88 44 24 20          	mov    %al,0x20(%esp)
    5ad9:	8b 45 c4             	mov    -0x3c(%ebp),%eax
    5adc:	89 44 24 14          	mov    %eax,0x14(%esp)
    5ae0:	8b 45 cc             	mov    -0x34(%ebp),%eax
    5ae3:	89 44 24 0c          	mov    %eax,0xc(%esp)
    5ae7:	8b 45 d4             	mov    -0x2c(%ebp),%eax
    5aea:	89 44 24 04          	mov    %eax,0x4(%esp)
    5aee:	89 f0                	mov    %esi,%eax
    5af0:	e8 2b f3 ff ff       	call   4e20 <AddModDrb.isra.4>
    5af5:	8b 4d dc             	mov    -0x24(%ebp),%ecx
    5af8:	8b 45 d8             	mov    -0x28(%ebp),%eax
    5afb:	89 4b 04             	mov    %ecx,0x4(%ebx)
    5afe:	8b 4d d4             	mov    -0x2c(%ebp),%ecx
    5b01:	89 43 08             	mov    %eax,0x8(%ebx)
    5b04:	8b 45 d0             	mov    -0x30(%ebp),%eax
    5b07:	89 4b 0c             	mov    %ecx,0xc(%ebx)
    5b0a:	8b 4d cc             	mov    -0x34(%ebp),%ecx
    5b0d:	89 43 10             	mov    %eax,0x10(%ebx)
    5b10:	8b 45 c8             	mov    -0x38(%ebp),%eax
    5b13:	89 4b 14             	mov    %ecx,0x14(%ebx)
    5b16:	8b 4d c4             	mov    -0x3c(%ebp),%ecx
    5b19:	89 43 18             	mov    %eax,0x18(%ebx)
    5b1c:	0f b6 45 f3          	movzbl -0xd(%ebp),%eax
    5b20:	89 4b 1c             	mov    %ecx,0x1c(%ebx)
    5b23:	8b 4d ec             	mov    -0x14(%ebp),%ecx
    5b26:	88 43 21             	mov    %al,0x21(%ebx)
    5b29:	8b 45 e8             	mov    -0x18(%ebp),%eax
    5b2c:	89 4b 22             	mov    %ecx,0x22(%ebx)
    5b2f:	8b 4d e4             	mov    -0x1c(%ebp),%ecx
    5b32:	89 43 26             	mov    %eax,0x26(%ebx)
    5b35:	8b 45 e0             	mov    -0x20(%ebp),%eax
    5b38:	89 4b 2a             	mov    %ecx,0x2a(%ebx)
    5b3b:	89 43 2e             	mov    %eax,0x2e(%ebx)
    5b3e:	8b 04 b5 00 00 00 00 	mov    0x0(,%esi,4),%eax
    5b45:	0f b6 40 01          	movzbl 0x1(%eax),%eax
    5b49:	c7 04 24 ac 16 00 00 	movl   $0x16ac,(%esp)
    5b50:	89 44 24 04          	mov    %eax,0x4(%esp)
    5b54:	e8 fc ff ff ff       	call   5b55 <ApplyDrbToAdd+0x105>
    5b59:	3b 7d bc             	cmp    -0x44(%ebp),%edi
    5b5c:	0f 84 4e 01 00 00    	je     5cb0 <ApplyDrbToAdd+0x260>
    5b62:	89 f8                	mov    %edi,%eax
    5b64:	c1 e0 06             	shl    $0x6,%eax
    5b67:	8d 44 05 0c          	lea    0xc(%ebp,%eax,1),%eax
    5b6b:	8b 58 10             	mov    0x10(%eax),%ebx
    5b6e:	8b 70 04             	mov    0x4(%eax),%esi
    5b71:	8b 48 0c             	mov    0xc(%eax),%ecx
    5b74:	0f b6 50 08          	movzbl 0x8(%eax),%edx
    5b78:	89 5d d8             	mov    %ebx,-0x28(%ebp)
    5b7b:	8b 58 14             	mov    0x14(%eax),%ebx
    5b7e:	89 4d dc             	mov    %ecx,-0x24(%ebp)
    5b81:	0f b6 48 2c          	movzbl 0x2c(%eax),%ecx
    5b85:	89 5d d4             	mov    %ebx,-0x2c(%ebp)
    5b88:	8b 58 18             	mov    0x18(%eax),%ebx
    5b8b:	89 5d d0             	mov    %ebx,-0x30(%ebp)
    5b8e:	8b 58 1c             	mov    0x1c(%eax),%ebx
    5b91:	89 5d cc             	mov    %ebx,-0x34(%ebp)
    5b94:	8b 58 20             	mov    0x20(%eax),%ebx
    5b97:	89 5d c8             	mov    %ebx,-0x38(%ebp)
    5b9a:	8b 58 24             	mov    0x24(%eax),%ebx
    5b9d:	89 5d c4             	mov    %ebx,-0x3c(%ebp)
    5ba0:	8b 58 28             	mov    0x28(%eax),%ebx
    5ba3:	89 5d c0             	mov    %ebx,-0x40(%ebp)
    5ba6:	0f b6 58 2d          	movzbl 0x2d(%eax),%ebx
    5baa:	88 5d f3             	mov    %bl,-0xd(%ebp)
    5bad:	8b 58 2e             	mov    0x2e(%eax),%ebx
    5bb0:	89 5d ec             	mov    %ebx,-0x14(%ebp)
    5bb3:	8b 58 32             	mov    0x32(%eax),%ebx
    5bb6:	89 5d e8             	mov    %ebx,-0x18(%ebp)
    5bb9:	8b 58 36             	mov    0x36(%eax),%ebx
    5bbc:	8b 40 3a             	mov    0x3a(%eax),%eax
    5bbf:	89 5d e4             	mov    %ebx,-0x1c(%ebp)
    5bc2:	8b 1c b5 00 00 00 00 	mov    0x0(,%esi,4),%ebx
    5bc9:	89 45 e0             	mov    %eax,-0x20(%ebp)
    5bcc:	85 db                	test   %ebx,%ebx
    5bce:	0f 85 b4 fe ff ff    	jne    5a88 <ApplyDrbToAdd+0x38>
    5bd4:	b8 34 00 00 00       	mov    $0x34,%eax
    5bd9:	83 c7 01             	add    $0x1,%edi
    5bdc:	88 55 b8             	mov    %dl,-0x48(%ebp)
    5bdf:	88 4d b4             	mov    %cl,-0x4c(%ebp)
    5be2:	e8 fc ff ff ff       	call   5be3 <ApplyDrbToAdd+0x193>
    5be7:	0f b6 4d b4          	movzbl -0x4c(%ebp),%ecx
    5beb:	0f b6 55 b8          	movzbl -0x48(%ebp),%edx
    5bef:	89 c3                	mov    %eax,%ebx
    5bf1:	8b 45 e0             	mov    -0x20(%ebp),%eax
    5bf4:	88 4c 24 1c          	mov    %cl,0x1c(%esp)
    5bf8:	8b 4d c0             	mov    -0x40(%ebp),%ecx
    5bfb:	c7 44 24 34 00 00 00 	movl   $0x0,0x34(%esp)
    5c02:	00 
    5c03:	89 44 24 30          	mov    %eax,0x30(%esp)
    5c07:	8b 45 e4             	mov    -0x1c(%ebp),%eax
    5c0a:	89 4c 24 18          	mov    %ecx,0x18(%esp)
    5c0e:	8b 4d c8             	mov    -0x38(%ebp),%ecx
    5c11:	89 44 24 2c          	mov    %eax,0x2c(%esp)
    5c15:	8b 45 e8             	mov    -0x18(%ebp),%eax
    5c18:	89 4c 24 10          	mov    %ecx,0x10(%esp)
    5c1c:	8b 4d d0             	mov    -0x30(%ebp),%ecx
    5c1f:	89 44 24 28          	mov    %eax,0x28(%esp)
    5c23:	8b 45 ec             	mov    -0x14(%ebp),%eax
    5c26:	89 4c 24 08          	mov    %ecx,0x8(%esp)
    5c2a:	8b 4d d8             	mov    -0x28(%ebp),%ecx
    5c2d:	89 44 24 24          	mov    %eax,0x24(%esp)
    5c31:	0f b6 45 f3          	movzbl -0xd(%ebp),%eax
    5c35:	89 0c 24             	mov    %ecx,(%esp)
    5c38:	8b 4d dc             	mov    -0x24(%ebp),%ecx
    5c3b:	88 44 24 20          	mov    %al,0x20(%esp)
    5c3f:	8b 45 c4             	mov    -0x3c(%ebp),%eax
    5c42:	89 44 24 14          	mov    %eax,0x14(%esp)
    5c46:	8b 45 cc             	mov    -0x34(%ebp),%eax
    5c49:	89 44 24 0c          	mov    %eax,0xc(%esp)
    5c4d:	8b 45 d4             	mov    -0x2c(%ebp),%eax
    5c50:	89 44 24 04          	mov    %eax,0x4(%esp)
    5c54:	89 f0                	mov    %esi,%eax
    5c56:	e8 c5 f1 ff ff       	call   4e20 <AddModDrb.isra.4>
    5c5b:	89 f0                	mov    %esi,%eax
    5c5d:	0f b6 4d c0          	movzbl -0x40(%ebp),%ecx
    5c61:	88 43 01             	mov    %al,0x1(%ebx)
    5c64:	0f b6 45 f3          	movzbl -0xd(%ebp),%eax
    5c68:	c6 03 01             	movb   $0x1,(%ebx)
    5c6b:	88 4b 20             	mov    %cl,0x20(%ebx)
    5c6e:	8b 4d ec             	mov    -0x14(%ebp),%ecx
    5c71:	88 43 21             	mov    %al,0x21(%ebx)
    5c74:	8b 45 e8             	mov    -0x18(%ebp),%eax
    5c77:	89 4b 22             	mov    %ecx,0x22(%ebx)
    5c7a:	8b 4d e4             	mov    -0x1c(%ebp),%ecx
    5c7d:	89 43 26             	mov    %eax,0x26(%ebx)
    5c80:	8b 45 e0             	mov    -0x20(%ebp),%eax
    5c83:	89 4b 2a             	mov    %ecx,0x2a(%ebx)
    5c86:	89 43 2e             	mov    %eax,0x2e(%ebx)
    5c89:	89 1c b5 00 00 00 00 	mov    %ebx,0x0(,%esi,4)
    5c90:	0f b6 43 01          	movzbl 0x1(%ebx),%eax
    5c94:	c7 04 24 80 16 00 00 	movl   $0x1680,(%esp)
    5c9b:	89 44 24 04          	mov    %eax,0x4(%esp)
    5c9f:	e8 fc ff ff ff       	call   5ca0 <ApplyDrbToAdd+0x250>
    5ca4:	3b 7d bc             	cmp    -0x44(%ebp),%edi
    5ca7:	0f 85 b5 fe ff ff    	jne    5b62 <ApplyDrbToAdd+0x112>
    5cad:	8d 76 00             	lea    0x0(%esi),%esi
    5cb0:	83 c4 78             	add    $0x78,%esp
    5cb3:	5b                   	pop    %ebx
    5cb4:	5e                   	pop    %esi
    5cb5:	5f                   	pop    %edi
    5cb6:	5d                   	pop    %ebp
    5cb7:	c3                   	ret    
    5cb8:	90                   	nop
    5cb9:	8d b4 26 00 00 00 00 	lea    0x0(%esi,%eiz,1),%esi

00005cc0 <ApplyDrbToRelease>:
    5cc0:	55                   	push   %ebp
    5cc1:	89 e5                	mov    %esp,%ebp
    5cc3:	56                   	push   %esi
    5cc4:	53                   	push   %ebx
    5cc5:	83 ec 10             	sub    $0x10,%esp
    5cc8:	e8 fc ff ff ff       	call   5cc9 <ApplyDrbToRelease+0x9>
    5ccd:	8b 75 08             	mov    0x8(%ebp),%esi
    5cd0:	85 f6                	test   %esi,%esi
    5cd2:	74 7f                	je     5d53 <ApplyDrbToRelease+0x93>
    5cd4:	31 db                	xor    %ebx,%ebx
    5cd6:	66 90                	xchg   %ax,%ax
    5cd8:	8b 44 9d 0c          	mov    0xc(%ebp,%ebx,4),%eax
    5cdc:	89 45 f0             	mov    %eax,-0x10(%ebp)
    5cdf:	89 45 f4             	mov    %eax,-0xc(%ebp)
    5ce2:	8b 04 85 00 00 00 00 	mov    0x0(,%eax,4),%eax
    5ce9:	85 c0                	test   %eax,%eax
    5ceb:	74 5f                	je     5d4c <ApplyDrbToRelease+0x8c>
    5ced:	8d 4d f0             	lea    -0x10(%ebp),%ecx
    5cf0:	ba 52 00 00 00       	mov    $0x52,%edx
    5cf5:	b8 01 00 00 00       	mov    $0x1,%eax
    5cfa:	c7 04 24 04 00 00 00 	movl   $0x4,(%esp)
    5d01:	e8 fc ff ff ff       	call   5d02 <ApplyDrbToRelease+0x42>
    5d06:	8d 4d f4             	lea    -0xc(%ebp),%ecx
    5d09:	ba 12 00 00 00       	mov    $0x12,%edx
    5d0e:	b8 01 00 00 00       	mov    $0x1,%eax
    5d13:	c7 04 24 04 00 00 00 	movl   $0x4,(%esp)
    5d1a:	e8 fc ff ff ff       	call   5d1b <ApplyDrbToRelease+0x5b>
    5d1f:	8b 45 f0             	mov    -0x10(%ebp),%eax
    5d22:	8b 04 85 00 00 00 00 	mov    0x0(,%eax,4),%eax
    5d29:	e8 fc ff ff ff       	call   5d2a <ApplyDrbToRelease+0x6a>
    5d2e:	8b 45 f0             	mov    -0x10(%ebp),%eax
    5d31:	c7 04 85 00 00 00 00 	movl   $0x0,0x0(,%eax,4)
    5d38:	00 00 00 00 
    5d3c:	89 44 24 04          	mov    %eax,0x4(%esp)
    5d40:	c7 04 24 dc 16 00 00 	movl   $0x16dc,(%esp)
    5d47:	e8 fc ff ff ff       	call   5d48 <ApplyDrbToRelease+0x88>
    5d4c:	83 c3 01             	add    $0x1,%ebx
    5d4f:	39 f3                	cmp    %esi,%ebx
    5d51:	75 85                	jne    5cd8 <ApplyDrbToRelease+0x18>
    5d53:	83 c4 10             	add    $0x10,%esp
    5d56:	5b                   	pop    %ebx
    5d57:	5e                   	pop    %esi
    5d58:	5d                   	pop    %ebp
    5d59:	c3                   	ret    
    5d5a:	8d b6 00 00 00 00    	lea    0x0(%esi),%esi

00005d60 <ApplyRadioResourceConfigDedicated.isra.6>:
    5d60:	55                   	push   %ebp
    5d61:	89 e5                	mov    %esp,%ebp
    5d63:	57                   	push   %edi
    5d64:	56                   	push   %esi
    5d65:	81 ec 58 03 00 00    	sub    $0x358,%esp
    5d6b:	e8 fc ff ff ff       	call   5d6c <ApplyRadioResourceConfigDedicated.isra.6+0xc>
    5d70:	84 c0                	test   %al,%al
    5d72:	0f 85 58 01 00 00    	jne    5ed0 <ApplyRadioResourceConfigDedicated.isra.6+0x170>
    5d78:	80 7d 7c 00          	cmpb   $0x0,0x7c(%ebp)
    5d7c:	0f 85 26 01 00 00    	jne    5ea8 <ApplyRadioResourceConfigDedicated.isra.6+0x148>
    5d82:	80 bd 44 03 00 00 00 	cmpb   $0x0,0x344(%ebp)
    5d89:	0f 85 89 00 00 00    	jne    5e18 <ApplyRadioResourceConfigDedicated.isra.6+0xb8>
    5d8f:	80 bd 78 03 00 00 00 	cmpb   $0x0,0x378(%ebp)
    5d96:	75 48                	jne    5de0 <ApplyRadioResourceConfigDedicated.isra.6+0x80>
    5d98:	80 bd cc 03 00 00 00 	cmpb   $0x0,0x3cc(%ebp)
    5d9f:	74 29                	je     5dca <ApplyRadioResourceConfigDedicated.isra.6+0x6a>
    5da1:	8d 7d b4             	lea    -0x4c(%ebp),%edi
    5da4:	b9 11 00 00 00       	mov    $0x11,%ecx
    5da9:	8d b5 d0 03 00 00    	lea    0x3d0(%ebp),%esi
    5daf:	ba 10 00 00 00       	mov    $0x10,%edx
    5db4:	f3 a5                	rep movsl %ds:(%esi),%es:(%edi)
    5db6:	b8 01 00 00 00       	mov    $0x1,%eax
    5dbb:	8d 4d b4             	lea    -0x4c(%ebp),%ecx
    5dbe:	c7 04 24 44 00 00 00 	movl   $0x44,(%esp)
    5dc5:	e8 fc ff ff ff       	call   5dc6 <ApplyRadioResourceConfigDedicated.isra.6+0x66>
    5dca:	c7 04 24 88 17 00 00 	movl   $0x1788,(%esp)
    5dd1:	e8 fc ff ff ff       	call   5dd2 <ApplyRadioResourceConfigDedicated.isra.6+0x72>
    5dd6:	81 c4 58 03 00 00    	add    $0x358,%esp
    5ddc:	5e                   	pop    %esi
    5ddd:	5f                   	pop    %edi
    5dde:	5d                   	pop    %ebp
    5ddf:	c3                   	ret    
    5de0:	8d bd 64 ff ff ff    	lea    -0x9c(%ebp),%edi
    5de6:	b9 14 00 00 00       	mov    $0x14,%ecx
    5deb:	8d b5 7c 03 00 00    	lea    0x37c(%ebp),%esi
    5df1:	ba 09 00 00 00       	mov    $0x9,%edx
    5df6:	f3 a5                	rep movsl %ds:(%esi),%es:(%edi)
    5df8:	b8 01 00 00 00       	mov    $0x1,%eax
    5dfd:	8d 8d 64 ff ff ff    	lea    -0x9c(%ebp),%ecx
    5e03:	c7 04 24 50 00 00 00 	movl   $0x50,(%esp)
    5e0a:	e8 fc ff ff ff       	call   5e0b <ApplyRadioResourceConfigDedicated.isra.6+0xab>
    5e0f:	eb 87                	jmp    5d98 <ApplyRadioResourceConfigDedicated.isra.6+0x38>
    5e11:	8d b4 26 00 00 00 00 	lea    0x0(%esi,%eiz,1),%esi
    5e18:	c7 04 24 5c 17 00 00 	movl   $0x175c,(%esp)
    5e1f:	e8 fc ff ff ff       	call   5e20 <ApplyRadioResourceConfigDedicated.isra.6+0xc0>
    5e24:	8b 85 48 03 00 00    	mov    0x348(%ebp),%eax
    5e2a:	89 04 24             	mov    %eax,(%esp)
    5e2d:	8b 85 4c 03 00 00    	mov    0x34c(%ebp),%eax
    5e33:	89 44 24 04          	mov    %eax,0x4(%esp)
    5e37:	8b 85 50 03 00 00    	mov    0x350(%ebp),%eax
    5e3d:	89 44 24 08          	mov    %eax,0x8(%esp)
    5e41:	8b 85 54 03 00 00    	mov    0x354(%ebp),%eax
    5e47:	89 44 24 0c          	mov    %eax,0xc(%esp)
    5e4b:	8b 85 58 03 00 00    	mov    0x358(%ebp),%eax
    5e51:	89 44 24 10          	mov    %eax,0x10(%esp)
    5e55:	8b 85 5c 03 00 00    	mov    0x35c(%ebp),%eax
    5e5b:	89 44 24 14          	mov    %eax,0x14(%esp)
    5e5f:	8b 85 60 03 00 00    	mov    0x360(%ebp),%eax
    5e65:	89 44 24 18          	mov    %eax,0x18(%esp)
    5e69:	8b 85 64 03 00 00    	mov    0x364(%ebp),%eax
    5e6f:	89 44 24 1c          	mov    %eax,0x1c(%esp)
    5e73:	8b 85 68 03 00 00    	mov    0x368(%ebp),%eax
    5e79:	89 44 24 20          	mov    %eax,0x20(%esp)
    5e7d:	8b 85 6c 03 00 00    	mov    0x36c(%ebp),%eax
    5e83:	89 44 24 24          	mov    %eax,0x24(%esp)
    5e87:	8b 85 70 03 00 00    	mov    0x370(%ebp),%eax
    5e8d:	89 44 24 28          	mov    %eax,0x28(%esp)
    5e91:	8b 85 74 03 00 00    	mov    0x374(%ebp),%eax
    5e97:	89 44 24 2c          	mov    %eax,0x2c(%esp)
    5e9b:	e8 fc ff ff ff       	call   5e9c <ApplyRadioResourceConfigDedicated.isra.6+0x13c>
    5ea0:	e9 ea fe ff ff       	jmp    5d8f <ApplyRadioResourceConfigDedicated.isra.6+0x2f>
    5ea5:	8d 76 00             	lea    0x0(%esi),%esi
    5ea8:	c7 04 24 34 17 00 00 	movl   $0x1734,(%esp)
    5eaf:	8d b5 80 00 00 00    	lea    0x80(%ebp),%esi
    5eb5:	e8 fc ff ff ff       	call   5eb6 <ApplyRadioResourceConfigDedicated.isra.6+0x156>
    5eba:	b9 b1 00 00 00       	mov    $0xb1,%ecx
    5ebf:	89 e7                	mov    %esp,%edi
    5ec1:	f3 a5                	rep movsl %ds:(%esi),%es:(%edi)
    5ec3:	e8 fc ff ff ff       	call   5ec4 <ApplyRadioResourceConfigDedicated.isra.6+0x164>
    5ec8:	e9 b5 fe ff ff       	jmp    5d82 <ApplyRadioResourceConfigDedicated.isra.6+0x22>
    5ecd:	8d 76 00             	lea    0x0(%esi),%esi
    5ed0:	c7 04 24 0c 17 00 00 	movl   $0x170c,(%esp)
    5ed7:	8d 75 08             	lea    0x8(%ebp),%esi
    5eda:	e8 fc ff ff ff       	call   5edb <ApplyRadioResourceConfigDedicated.isra.6+0x17b>
    5edf:	b9 1d 00 00 00       	mov    $0x1d,%ecx
    5ee4:	89 e7                	mov    %esp,%edi
    5ee6:	f3 a5                	rep movsl %ds:(%esi),%es:(%edi)
    5ee8:	e8 fc ff ff ff       	call   5ee9 <ApplyRadioResourceConfigDedicated.isra.6+0x189>
    5eed:	e9 86 fe ff ff       	jmp    5d78 <ApplyRadioResourceConfigDedicated.isra.6+0x18>
    5ef2:	8d b4 26 00 00 00 00 	lea    0x0(%esi,%eiz,1),%esi
    5ef9:	8d bc 27 00 00 00 00 	lea    0x0(%edi,%eiz,1),%edi

00005f00 <DoRecvRrcConnectionReconfiguration>:
    5f00:	55                   	push   %ebp
    5f01:	89 e5                	mov    %esp,%ebp
    5f03:	57                   	push   %edi
    5f04:	56                   	push   %esi
    5f05:	81 ec 0c 04 00 00    	sub    $0x40c,%esp
    5f0b:	e8 fc ff ff ff       	call   5f0c <DoRecvRrcConnectionReconfiguration+0xc>
    5f10:	80 78 01 00          	cmpb   $0x0,0x1(%eax)
    5f14:	0f 84 1e 01 00 00    	je     6038 <DoRecvRrcConnectionReconfiguration+0x138>
    5f1a:	0f b6 50 04          	movzbl 0x4(%eax),%edx
    5f1e:	8d b0 d0 03 00 00    	lea    0x3d0(%eax),%esi
    5f24:	b9 11 00 00 00       	mov    $0x11,%ecx
    5f29:	8d bc 24 c8 03 00 00 	lea    0x3c8(%esp),%edi
    5f30:	f3 a5                	rep movsl %ds:(%esi),%es:(%edi)
    5f32:	8d b0 7c 03 00 00    	lea    0x37c(%eax),%esi
    5f38:	8d bc 24 74 03 00 00 	lea    0x374(%esp),%edi
    5f3f:	0f b6 88 cc 03 00 00 	movzbl 0x3cc(%eax),%ecx
    5f46:	88 8c 24 c4 03 00 00 	mov    %cl,0x3c4(%esp)
    5f4d:	b9 14 00 00 00       	mov    $0x14,%ecx
    5f52:	f3 a5                	rep movsl %ds:(%esi),%es:(%edi)
    5f54:	8d b0 80 00 00 00    	lea    0x80(%eax),%esi
    5f5a:	8d 7c 24 78          	lea    0x78(%esp),%edi
    5f5e:	0f b6 88 78 03 00 00 	movzbl 0x378(%eax),%ecx
    5f65:	88 8c 24 70 03 00 00 	mov    %cl,0x370(%esp)
    5f6c:	8b 88 48 03 00 00    	mov    0x348(%eax),%ecx
    5f72:	89 8c 24 40 03 00 00 	mov    %ecx,0x340(%esp)
    5f79:	8b 88 4c 03 00 00    	mov    0x34c(%eax),%ecx
    5f7f:	89 8c 24 44 03 00 00 	mov    %ecx,0x344(%esp)
    5f86:	8b 88 50 03 00 00    	mov    0x350(%eax),%ecx
    5f8c:	89 8c 24 48 03 00 00 	mov    %ecx,0x348(%esp)
    5f93:	8b 88 54 03 00 00    	mov    0x354(%eax),%ecx
    5f99:	89 8c 24 4c 03 00 00 	mov    %ecx,0x34c(%esp)
    5fa0:	8b 88 58 03 00 00    	mov    0x358(%eax),%ecx
    5fa6:	89 8c 24 50 03 00 00 	mov    %ecx,0x350(%esp)
    5fad:	8b 88 5c 03 00 00    	mov    0x35c(%eax),%ecx
    5fb3:	89 8c 24 54 03 00 00 	mov    %ecx,0x354(%esp)
    5fba:	8b 88 60 03 00 00    	mov    0x360(%eax),%ecx
    5fc0:	89 8c 24 58 03 00 00 	mov    %ecx,0x358(%esp)
    5fc7:	8b 88 64 03 00 00    	mov    0x364(%eax),%ecx
    5fcd:	89 8c 24 5c 03 00 00 	mov    %ecx,0x35c(%esp)
    5fd4:	8b 88 68 03 00 00    	mov    0x368(%eax),%ecx
    5fda:	89 8c 24 60 03 00 00 	mov    %ecx,0x360(%esp)
    5fe1:	8b 88 6c 03 00 00    	mov    0x36c(%eax),%ecx
    5fe7:	89 8c 24 64 03 00 00 	mov    %ecx,0x364(%esp)
    5fee:	8b 88 70 03 00 00    	mov    0x370(%eax),%ecx
    5ff4:	89 8c 24 68 03 00 00 	mov    %ecx,0x368(%esp)
    5ffb:	8b 88 74 03 00 00    	mov    0x374(%eax),%ecx
    6001:	89 8c 24 6c 03 00 00 	mov    %ecx,0x36c(%esp)
    6008:	0f b6 88 44 03 00 00 	movzbl 0x344(%eax),%ecx
    600f:	88 8c 24 3c 03 00 00 	mov    %cl,0x33c(%esp)
    6016:	b9 b1 00 00 00       	mov    $0xb1,%ecx
    601b:	f3 a5                	rep movsl %ds:(%esi),%es:(%edi)
    601d:	8d 70 08             	lea    0x8(%eax),%esi
    6020:	89 e7                	mov    %esp,%edi
    6022:	0f b6 48 7c          	movzbl 0x7c(%eax),%ecx
    6026:	89 d0                	mov    %edx,%eax
    6028:	88 4c 24 74          	mov    %cl,0x74(%esp)
    602c:	b9 1d 00 00 00       	mov    $0x1d,%ecx
    6031:	f3 a5                	rep movsl %ds:(%esi),%es:(%edi)
    6033:	e8 28 fd ff ff       	call   5d60 <ApplyRadioResourceConfigDedicated.isra.6>
    6038:	81 c4 0c 04 00 00    	add    $0x40c,%esp
    603e:	5e                   	pop    %esi
    603f:	5f                   	pop    %edi
    6040:	5d                   	pop    %ebp
    6041:	c3                   	ret    
    6042:	8d b4 26 00 00 00 00 	lea    0x0(%esi,%eiz,1),%esi
    6049:	8d bc 27 00 00 00 00 	lea    0x0(%edi,%eiz,1),%edi

00006050 <DoSendRrcConnectionReconfigurationCompleted>:
    6050:	55                   	push   %ebp
    6051:	89 e5                	mov    %esp,%ebp
    6053:	53                   	push   %ebx
    6054:	83 ec 04             	sub    $0x4,%esp
    6057:	e8 fc ff ff ff       	call   6058 <DoSendRrcConnectionReconfigurationCompleted+0x8>
    605c:	89 c3                	mov    %eax,%ebx
    605e:	b8 28 00 00 00       	mov    $0x28,%eax
    6063:	e8 fc ff ff ff       	call   6064 <DoSendRrcConnectionReconfigurationCompleted+0x14>
    6068:	b9 06 00 00 00       	mov    $0x6,%ecx
    606d:	ba 28 00 00 00       	mov    $0x28,%edx
    6072:	88 58 04             	mov    %bl,0x4(%eax)
    6075:	c7 00 02 00 00 00    	movl   $0x2,(%eax)
    607b:	e8 fc ff ff ff       	call   607c <DoSendRrcConnectionReconfigurationCompleted+0x2c>
    6080:	c7 04 24 d4 17 00 00 	movl   $0x17d4,(%esp)
    6087:	e8 fc ff ff ff       	call   6088 <DoSendRrcConnectionReconfigurationCompleted+0x38>
    608c:	83 c4 04             	add    $0x4,%esp
    608f:	5b                   	pop    %ebx
    6090:	5d                   	pop    %ebp
    6091:	c3                   	ret    
    6092:	90                   	nop
    6093:	90                   	nop
    6094:	90                   	nop
    6095:	90                   	nop
    6096:	90                   	nop
    6097:	90                   	nop
    6098:	90                   	nop
    6099:	90                   	nop
    609a:	90                   	nop
    609b:	90                   	nop
    609c:	90                   	nop
    609d:	90                   	nop
    609e:	90                   	nop
    609f:	90                   	nop

000060a0 <cell_reselection_priority_info>:
    60a0:	55                   	push   %ebp
    60a1:	89 e5                	mov    %esp,%ebp
    60a3:	83 ec 10             	sub    $0x10,%esp
    60a6:	89 5d f4             	mov    %ebx,-0xc(%ebp)
    60a9:	89 75 f8             	mov    %esi,-0x8(%ebp)
    60ac:	89 7d fc             	mov    %edi,-0x4(%ebp)
    60af:	e8 fc ff ff ff       	call   60b0 <cell_reselection_priority_info+0x10>
    60b4:	89 c3                	mov    %eax,%ebx
    60b6:	c7 04 24 f8 17 00 00 	movl   $0x17f8,(%esp)
    60bd:	e8 fc ff ff ff       	call   60be <cell_reselection_priority_info+0x1e>
    60c2:	80 7b 08 00          	cmpb   $0x0,0x8(%ebx)
    60c6:	74 1e                	je     60e6 <cell_reselection_priority_info+0x46>
    60c8:	a1 00 00 00 00       	mov    0x0,%eax
    60cd:	85 c0                	test   %eax,%eax
    60cf:	74 0f                	je     60e0 <cell_reselection_priority_info+0x40>
    60d1:	e8 fc ff ff ff       	call   60d2 <cell_reselection_priority_info+0x32>
    60d6:	c7 05 00 00 00 00 00 	movl   $0x0,0x0
    60dd:	00 00 00 
    60e0:	80 7b 0c 00          	cmpb   $0x0,0xc(%ebx)
    60e4:	75 12                	jne    60f8 <cell_reselection_priority_info+0x58>
    60e6:	8b 5d f4             	mov    -0xc(%ebp),%ebx
    60e9:	8b 75 f8             	mov    -0x8(%ebp),%esi
    60ec:	8b 7d fc             	mov    -0x4(%ebp),%edi
    60ef:	89 ec                	mov    %ebp,%esp
    60f1:	5d                   	pop    %ebp
    60f2:	c3                   	ret    
    60f3:	90                   	nop
    60f4:	8d 74 26 00          	lea    0x0(%esi,%eiz,1),%esi
    60f8:	b8 28 00 00 00       	mov    $0x28,%eax
    60fd:	e8 fc ff ff ff       	call   60fe <cell_reselection_priority_info+0x5e>
    6102:	31 d2                	xor    %edx,%edx
    6104:	85 c0                	test   %eax,%eax
    6106:	a3 00 00 00 00       	mov    %eax,0x0
    610b:	74 1e                	je     612b <cell_reselection_priority_info+0x8b>
    610d:	8b 74 13 10          	mov    0x10(%ebx,%edx,1),%esi
    6111:	8b 7c 13 14          	mov    0x14(%ebx,%edx,1),%edi
    6115:	89 34 10             	mov    %esi,(%eax,%edx,1)
    6118:	89 7c 10 04          	mov    %edi,0x4(%eax,%edx,1)
    611c:	83 c2 08             	add    $0x8,%edx
    611f:	83 fa 28             	cmp    $0x28,%edx
    6122:	74 c2                	je     60e6 <cell_reselection_priority_info+0x46>
    6124:	a1 00 00 00 00       	mov    0x0,%eax
    6129:	eb e2                	jmp    610d <cell_reselection_priority_info+0x6d>
    612b:	c7 04 24 30 18 00 00 	movl   $0x1830,(%esp)
    6132:	e8 fc ff ff ff       	call   6133 <cell_reselection_priority_info+0x93>
    6137:	eb ad                	jmp    60e6 <cell_reselection_priority_info+0x46>
    6139:	8d b4 26 00 00 00 00 	lea    0x0(%esi,%eiz,1),%esi

00006140 <set_t320>:
    6140:	55                   	push   %ebp
    6141:	89 e5                	mov    %esp,%ebp
    6143:	53                   	push   %ebx
    6144:	83 ec 04             	sub    $0x4,%esp
    6147:	e8 fc ff ff ff       	call   6148 <set_t320+0x8>
    614c:	89 c3                	mov    %eax,%ebx
    614e:	c7 04 24 80 18 00 00 	movl   $0x1880,(%esp)
    6155:	e8 fc ff ff ff       	call   6156 <set_t320+0x16>
    615a:	80 7b 38 00          	cmpb   $0x0,0x38(%ebx)
    615e:	74 11                	je     6171 <set_t320+0x31>
    6160:	69 53 3c 00 bc a0 65 	imul   $0x65a0bc00,0x3c(%ebx),%edx
    6167:	b8 14 00 00 00       	mov    $0x14,%eax
    616c:	e8 fc ff ff ff       	call   616d <set_t320+0x2d>
    6171:	83 c4 04             	add    $0x4,%esp
    6174:	5b                   	pop    %ebx
    6175:	5d                   	pop    %ebp
    6176:	c3                   	ret    
    6177:	89 f6                	mov    %esi,%esi
    6179:	8d bc 27 00 00 00 00 	lea    0x0(%edi,%eiz,1),%edi

00006180 <stop_timer>:
    6180:	55                   	push   %ebp
    6181:	89 e5                	mov    %esp,%ebp
    6183:	83 ec 04             	sub    $0x4,%esp
    6186:	e8 fc ff ff ff       	call   6187 <stop_timer+0x7>
    618b:	c7 04 24 a4 18 00 00 	movl   $0x18a4,(%esp)
    6192:	e8 fc ff ff ff       	call   6193 <stop_timer+0x13>
    6197:	31 c0                	xor    %eax,%eax
    6199:	e8 fc ff ff ff       	call   619a <stop_timer+0x1a>
    619e:	b8 01 00 00 00       	mov    $0x1,%eax
    61a3:	e8 fc ff ff ff       	call   61a4 <stop_timer+0x24>
    61a8:	b8 02 00 00 00       	mov    $0x2,%eax
    61ad:	e8 fc ff ff ff       	call   61ae <stop_timer+0x2e>
    61b2:	b8 05 00 00 00       	mov    $0x5,%eax
    61b7:	e8 fc ff ff ff       	call   61b8 <stop_timer+0x38>
    61bc:	b8 0b 00 00 00       	mov    $0xb,%eax
    61c1:	e8 fc ff ff ff       	call   61c2 <stop_timer+0x42>
    61c6:	b8 15 00 00 00       	mov    $0x15,%eax
    61cb:	e8 fc ff ff ff       	call   61cc <stop_timer+0x4c>
    61d0:	c9                   	leave  
    61d1:	c3                   	ret    
    61d2:	8d b4 26 00 00 00 00 	lea    0x0(%esi,%eiz,1),%esi
    61d9:	8d bc 27 00 00 00 00 	lea    0x0(%edi,%eiz,1),%edi

000061e0 <release_radio_resource>:
    61e0:	55                   	push   %ebp
    61e1:	89 e5                	mov    %esp,%ebp
    61e3:	83 ec 60             	sub    $0x60,%esp
    61e6:	e8 fc ff ff ff       	call   61e7 <release_radio_resource+0x7>
    61eb:	c7 04 24 c8 18 00 00 	movl   $0x18c8,(%esp)
    61f2:	e8 fc ff ff ff       	call   61f3 <release_radio_resource+0x13>
    61f7:	31 c9                	xor    %ecx,%ecx
    61f9:	31 c0                	xor    %eax,%eax
    61fb:	90                   	nop
    61fc:	8d 74 26 00          	lea    0x0(%esi,%eiz,1),%esi
    6200:	8b 14 85 00 00 00 00 	mov    0x0(,%eax,4),%edx
    6207:	85 d2                	test   %edx,%edx
    6209:	74 0b                	je     6216 <release_radio_resource+0x36>
    620b:	0f b6 52 01          	movzbl 0x1(%edx),%edx
    620f:	89 54 8d d4          	mov    %edx,-0x2c(%ebp,%ecx,4)
    6213:	83 c1 01             	add    $0x1,%ecx
    6216:	83 c0 01             	add    $0x1,%eax
    6219:	83 f8 0b             	cmp    $0xb,%eax
    621c:	75 e2                	jne    6200 <release_radio_resource+0x20>
    621e:	89 4d d0             	mov    %ecx,-0x30(%ebp)
    6221:	e8 fc ff ff ff       	call   6222 <release_radio_resource+0x42>
    6226:	8b 45 d0             	mov    -0x30(%ebp),%eax
    6229:	89 04 24             	mov    %eax,(%esp)
    622c:	8b 45 d4             	mov    -0x2c(%ebp),%eax
    622f:	89 44 24 04          	mov    %eax,0x4(%esp)
    6233:	8b 45 d8             	mov    -0x28(%ebp),%eax
    6236:	89 44 24 08          	mov    %eax,0x8(%esp)
    623a:	8b 45 dc             	mov    -0x24(%ebp),%eax
    623d:	89 44 24 0c          	mov    %eax,0xc(%esp)
    6241:	8b 45 e0             	mov    -0x20(%ebp),%eax
    6244:	89 44 24 10          	mov    %eax,0x10(%esp)
    6248:	8b 45 e4             	mov    -0x1c(%ebp),%eax
    624b:	89 44 24 14          	mov    %eax,0x14(%esp)
    624f:	8b 45 e8             	mov    -0x18(%ebp),%eax
    6252:	89 44 24 18          	mov    %eax,0x18(%esp)
    6256:	8b 45 ec             	mov    -0x14(%ebp),%eax
    6259:	89 44 24 1c          	mov    %eax,0x1c(%esp)
    625d:	8b 45 f0             	mov    -0x10(%ebp),%eax
    6260:	89 44 24 20          	mov    %eax,0x20(%esp)
    6264:	8b 45 f4             	mov    -0xc(%ebp),%eax
    6267:	89 44 24 24          	mov    %eax,0x24(%esp)
    626b:	8b 45 f8             	mov    -0x8(%ebp),%eax
    626e:	89 44 24 28          	mov    %eax,0x28(%esp)
    6272:	8b 45 fc             	mov    -0x4(%ebp),%eax
    6275:	89 44 24 2c          	mov    %eax,0x2c(%esp)
    6279:	e8 fc ff ff ff       	call   627a <release_radio_resource+0x9a>
    627e:	c9                   	leave  
    627f:	c3                   	ret    

00006280 <t320_timeout>:
    6280:	55                   	push   %ebp
    6281:	89 e5                	mov    %esp,%ebp
    6283:	53                   	push   %ebx
    6284:	83 ec 04             	sub    $0x4,%esp
    6287:	e8 fc ff ff ff       	call   6288 <t320_timeout+0x8>
    628c:	89 c3                	mov    %eax,%ebx
    628e:	c7 04 24 f8 18 00 00 	movl   $0x18f8,(%esp)
    6295:	e8 fc ff ff ff       	call   6296 <t320_timeout+0x16>
    629a:	85 db                	test   %ebx,%ebx
    629c:	74 07                	je     62a5 <t320_timeout+0x25>
    629e:	89 d8                	mov    %ebx,%eax
    62a0:	e8 fc ff ff ff       	call   62a1 <t320_timeout+0x21>
    62a5:	83 c4 04             	add    $0x4,%esp
    62a8:	5b                   	pop    %ebx
    62a9:	5d                   	pop    %ebp
    62aa:	c3                   	ret    
    62ab:	90                   	nop
    62ac:	8d 74 26 00          	lea    0x0(%esi,%eiz,1),%esi

000062b0 <gen_release>:
    62b0:	55                   	push   %ebp
    62b1:	89 e5                	mov    %esp,%ebp
    62b3:	e8 fc ff ff ff       	call   62b4 <gen_release+0x4>
    62b8:	b8 40 00 00 00       	mov    $0x40,%eax
    62bd:	e8 fc ff ff ff       	call   62be <gen_release+0xe>
    62c2:	c6 00 01             	movb   $0x1,(%eax)
    62c5:	c6 40 08 01          	movb   $0x1,0x8(%eax)
    62c9:	c7 40 04 01 00 00 00 	movl   $0x1,0x4(%eax)
    62d0:	c6 40 38 01          	movb   $0x1,0x38(%eax)
    62d4:	c7 40 3c 05 00 00 00 	movl   $0x5,0x3c(%eax)
    62db:	c6 40 0c 00          	movb   $0x0,0xc(%eax)
    62df:	5d                   	pop    %ebp
    62e0:	c3                   	ret    
    62e1:	90                   	nop
    62e2:	90                   	nop
    62e3:	90                   	nop
    62e4:	90                   	nop
    62e5:	90                   	nop
    62e6:	90                   	nop
    62e7:	90                   	nop
    62e8:	90                   	nop
    62e9:	90                   	nop
    62ea:	90                   	nop
    62eb:	90                   	nop
    62ec:	90                   	nop
    62ed:	90                   	nop
    62ee:	90                   	nop
    62ef:	90                   	nop

000062f0 <CheckPagingRecord>:
    62f0:	55                   	push   %ebp
    62f1:	89 e5                	mov    %esp,%ebp
    62f3:	57                   	push   %edi
    62f4:	56                   	push   %esi
    62f5:	53                   	push   %ebx
    62f6:	83 ec 04             	sub    $0x4,%esp
    62f9:	e8 fc ff ff ff       	call   62fa <CheckPagingRecord+0xa>
    62fe:	8b 5d 08             	mov    0x8(%ebp),%ebx
    6301:	c7 04 24 20 19 00 00 	movl   $0x1920,(%esp)
    6308:	e8 fc ff ff ff       	call   6309 <CheckPagingRecord+0x19>
    630d:	e8 fc ff ff ff       	call   630e <CheckPagingRecord+0x1e>
    6312:	85 db                	test   %ebx,%ebx
    6314:	89 c7                	mov    %eax,%edi
    6316:	74 36                	je     634e <CheckPagingRecord+0x5e>
    6318:	6b db 5c             	imul   $0x5c,%ebx,%ebx
    631b:	0f b6 85 dc 01 00 00 	movzbl 0x1dc(%ebp),%eax
    6322:	8d 55 10             	lea    0x10(%ebp),%edx
    6325:	8b b5 dd 01 00 00    	mov    0x1dd(%ebp),%esi
    632b:	01 d3                	add    %edx,%ebx
    632d:	eb 08                	jmp    6337 <CheckPagingRecord+0x47>
    632f:	90                   	nop
    6330:	83 c2 5c             	add    $0x5c,%edx
    6333:	39 da                	cmp    %ebx,%edx
    6335:	74 15                	je     634c <CheckPagingRecord+0x5c>
    6337:	31 c9                	xor    %ecx,%ecx
    6339:	3a 02                	cmp    (%edx),%al
    633b:	75 f3                	jne    6330 <CheckPagingRecord+0x40>
    633d:	31 c9                	xor    %ecx,%ecx
    633f:	39 72 01             	cmp    %esi,0x1(%edx)
    6342:	0f 94 c1             	sete   %cl
    6345:	83 c2 5c             	add    $0x5c,%edx
    6348:	39 da                	cmp    %ebx,%edx
    634a:	75 eb                	jne    6337 <CheckPagingRecord+0x47>
    634c:	89 0f                	mov    %ecx,(%edi)
    634e:	c7 04 24 54 19 00 00 	movl   $0x1954,(%esp)
    6355:	e8 fc ff ff ff       	call   6356 <CheckPagingRecord+0x66>
    635a:	83 c4 04             	add    $0x4,%esp
    635d:	5b                   	pop    %ebx
    635e:	5e                   	pop    %esi
    635f:	5f                   	pop    %edi
    6360:	5d                   	pop    %ebp
    6361:	c3                   	ret    
    6362:	8d b4 26 00 00 00 00 	lea    0x0(%esi,%eiz,1),%esi
    6369:	8d bc 27 00 00 00 00 	lea    0x0(%edi,%eiz,1),%edi

00006370 <Begin_recv_sysinfo>:
    6370:	55                   	push   %ebp
    6371:	89 e5                	mov    %esp,%ebp
    6373:	83 ec 04             	sub    $0x4,%esp
    6376:	e8 fc ff ff ff       	call   6377 <Begin_recv_sysinfo+0x7>
    637b:	c7 04 24 8c 19 00 00 	movl   $0x198c,(%esp)
    6382:	e8 fc ff ff ff       	call   6383 <Begin_recv_sysinfo+0x13>
    6387:	c7 04 24 c4 19 00 00 	movl   $0x19c4,(%esp)
    638e:	e8 fc ff ff ff       	call   638f <Begin_recv_sysinfo+0x1f>
    6393:	c9                   	leave  
    6394:	c3                   	ret    
    6395:	8d 74 26 00          	lea    0x0(%esi,%eiz,1),%esi
    6399:	8d bc 27 00 00 00 00 	lea    0x0(%edi,%eiz,1),%edi

000063a0 <DoReceivePaging>:
    63a0:	55                   	push   %ebp
    63a1:	89 e5                	mov    %esp,%ebp
    63a3:	81 ec 34 02 00 00    	sub    $0x234,%esp
    63a9:	89 5d f4             	mov    %ebx,-0xc(%ebp)
    63ac:	89 75 f8             	mov    %esi,-0x8(%ebp)
    63af:	89 7d fc             	mov    %edi,-0x4(%ebp)
    63b2:	e8 fc ff ff ff       	call   63b3 <DoReceivePaging+0x13>
    63b7:	89 c3                	mov    %eax,%ebx
    63b9:	c7 04 24 08 1a 00 00 	movl   $0x1a08,(%esp)
    63c0:	e8 fc ff ff ff       	call   63c1 <DoReceivePaging+0x21>
    63c5:	e8 fc ff ff ff       	call   63c6 <DoReceivePaging+0x26>
    63ca:	83 38 07             	cmpl   $0x7,(%eax)
    63cd:	74 39                	je     6408 <DoReceivePaging+0x68>
    63cf:	80 bb d4 01 00 00 00 	cmpb   $0x0,0x1d4(%ebx)
    63d6:	74 11                	je     63e9 <DoReceivePaging+0x49>
    63d8:	c7 04 24 30 1a 00 00 	movl   $0x1a30,(%esp)
    63df:	e8 fc ff ff ff       	call   63e0 <DoReceivePaging+0x40>
    63e4:	e8 fc ff ff ff       	call   63e5 <DoReceivePaging+0x45>
    63e9:	c7 04 24 8c 1a 00 00 	movl   $0x1a8c,(%esp)
    63f0:	e8 fc ff ff ff       	call   63f1 <DoReceivePaging+0x51>
    63f5:	8b 5d f4             	mov    -0xc(%ebp),%ebx
    63f8:	8b 75 f8             	mov    -0x8(%ebp),%esi
    63fb:	8b 7d fc             	mov    -0x4(%ebp),%edi
    63fe:	89 ec                	mov    %ebp,%esp
    6400:	5d                   	pop    %ebp
    6401:	c3                   	ret    
    6402:	8d b6 00 00 00 00    	lea    0x0(%esi),%esi
    6408:	80 3b 00             	cmpb   $0x0,(%ebx)
    640b:	74 c2                	je     63cf <DoReceivePaging+0x2f>
    640d:	8d 75 08             	lea    0x8(%ebp),%esi
    6410:	b9 16 00 00 00       	mov    $0x16,%ecx
    6415:	8d bc 24 d0 01 00 00 	lea    0x1d0(%esp),%edi
    641c:	f3 a5                	rep movsl %ds:(%esi),%es:(%edi)
    641e:	8d 73 04             	lea    0x4(%ebx),%esi
    6421:	89 e7                	mov    %esp,%edi
    6423:	b1 74                	mov    $0x74,%cl
    6425:	f3 a5                	rep movsl %ds:(%esi),%es:(%edi)
    6427:	e8 fc ff ff ff       	call   6428 <DoReceivePaging+0x88>
    642c:	eb a1                	jmp    63cf <DoReceivePaging+0x2f>
    642e:	66 90                	xchg   %ax,%ax

00006430 <DoReceiveMIB>:
    6430:	55                   	push   %ebp
    6431:	89 e5                	mov    %esp,%ebp
    6433:	83 ec 04             	sub    $0x4,%esp
    6436:	e8 fc ff ff ff       	call   6437 <DoReceiveMIB+0x7>
    643b:	c7 04 24 b8 1a 00 00 	movl   $0x1ab8,(%esp)
    6442:	e8 fc ff ff ff       	call   6443 <DoReceiveMIB+0x13>
    6447:	e8 fc ff ff ff       	call   6448 <DoReceiveMIB+0x18>
    644c:	b8 37 01 00 00       	mov    $0x137,%eax
    6451:	e8 fc ff ff ff       	call   6452 <DoReceiveMIB+0x22>
    6456:	c7 04 24 dc 1a 00 00 	movl   $0x1adc,(%esp)
    645d:	e8 fc ff ff ff       	call   645e <DoReceiveMIB+0x2e>
    6462:	c9                   	leave  
    6463:	c3                   	ret    
    6464:	8d b6 00 00 00 00    	lea    0x0(%esi),%esi
    646a:	8d bf 00 00 00 00    	lea    0x0(%edi),%edi

00006470 <ApplyPhich_Config>:
    6470:	55                   	push   %ebp
    6471:	89 e5                	mov    %esp,%ebp
    6473:	e8 fc ff ff ff       	call   6474 <ApplyPhich_Config+0x4>
    6478:	5d                   	pop    %ebp
    6479:	c3                   	ret    
    647a:	8d b6 00 00 00 00    	lea    0x0(%esi),%esi

00006480 <SendCellAccessRelatedInfotoUS>:
    6480:	55                   	push   %ebp
    6481:	89 e5                	mov    %esp,%ebp
    6483:	83 ec 04             	sub    $0x4,%esp
    6486:	e8 fc ff ff ff       	call   6487 <SendCellAccessRelatedInfotoUS+0x7>
    648b:	c7 04 24 04 1b 00 00 	movl   $0x1b04,(%esp)
    6492:	e8 fc ff ff ff       	call   6493 <SendCellAccessRelatedInfotoUS+0x13>
    6497:	c7 04 24 40 1b 00 00 	movl   $0x1b40,(%esp)
    649e:	e8 fc ff ff ff       	call   649f <SendCellAccessRelatedInfotoUS+0x1f>
    64a3:	c9                   	leave  
    64a4:	c3                   	ret    
    64a5:	8d 74 26 00          	lea    0x0(%esi,%eiz,1),%esi
    64a9:	8d bc 27 00 00 00 00 	lea    0x0(%edi,%eiz,1),%edi

000064b0 <DoReceiveSIB1>:
    64b0:	55                   	push   %ebp
    64b1:	89 e5                	mov    %esp,%ebp
    64b3:	81 ec c8 00 00 00    	sub    $0xc8,%esp
    64b9:	89 75 f8             	mov    %esi,-0x8(%ebp)
    64bc:	89 7d fc             	mov    %edi,-0x4(%ebp)
    64bf:	e8 fc ff ff ff       	call   64c0 <DoReceiveSIB1+0x10>
    64c4:	89 c6                	mov    %eax,%esi
    64c6:	c7 04 24 80 1b 00 00 	movl   $0x1b80,(%esp)
    64cd:	e8 fc ff ff ff       	call   64ce <DoReceiveSIB1+0x1e>
    64d2:	b9 30 00 00 00       	mov    $0x30,%ecx
    64d7:	89 e7                	mov    %esp,%edi
    64d9:	f3 a5                	rep movsl %ds:(%esi),%es:(%edi)
    64db:	e8 fc ff ff ff       	call   64dc <DoReceiveSIB1+0x2c>
    64e0:	c7 04 24 a4 1b 00 00 	movl   $0x1ba4,(%esp)
    64e7:	e8 fc ff ff ff       	call   64e8 <DoReceiveSIB1+0x38>
    64ec:	8b 75 f8             	mov    -0x8(%ebp),%esi
    64ef:	8b 7d fc             	mov    -0x4(%ebp),%edi
    64f2:	89 ec                	mov    %ebp,%esp
    64f4:	5d                   	pop    %ebp
    64f5:	c3                   	ret    
    64f6:	8d 76 00             	lea    0x0(%esi),%esi
    64f9:	8d bc 27 00 00 00 00 	lea    0x0(%edi,%eiz,1),%edi

00006500 <ApplyRachConfigCommon>:
    6500:	55                   	push   %ebp
    6501:	89 e5                	mov    %esp,%ebp
    6503:	e8 fc ff ff ff       	call   6504 <ApplyRachConfigCommon+0x4>
    6508:	b8 2c 00 00 00       	mov    $0x2c,%eax
    650d:	e8 fc ff ff ff       	call   650e <ApplyRachConfigCommon+0xe>
    6512:	8b 55 08             	mov    0x8(%ebp),%edx
    6515:	89 10                	mov    %edx,(%eax)
    6517:	8b 55 10             	mov    0x10(%ebp),%edx
    651a:	89 50 08             	mov    %edx,0x8(%eax)
    651d:	8b 55 14             	mov    0x14(%ebp),%edx
    6520:	89 50 0c             	mov    %edx,0xc(%eax)
    6523:	8b 55 18             	mov    0x18(%ebp),%edx
    6526:	89 50 10             	mov    %edx,0x10(%eax)
    6529:	8b 55 1c             	mov    0x1c(%ebp),%edx
    652c:	89 50 14             	mov    %edx,0x14(%eax)
    652f:	8b 55 20             	mov    0x20(%ebp),%edx
    6532:	89 50 18             	mov    %edx,0x18(%eax)
    6535:	8b 55 24             	mov    0x24(%ebp),%edx
    6538:	89 50 1c             	mov    %edx,0x1c(%eax)
    653b:	8b 55 30             	mov    0x30(%ebp),%edx
    653e:	89 50 28             	mov    %edx,0x28(%eax)
    6541:	e8 fc ff ff ff       	call   6542 <ApplyRachConfigCommon+0x42>
    6546:	5d                   	pop    %ebp
    6547:	c3                   	ret    
    6548:	90                   	nop
    6549:	8d b4 26 00 00 00 00 	lea    0x0(%esi,%eiz,1),%esi

00006550 <ApplyRadioResourceConfigCommon>:
    6550:	55                   	push   %ebp
    6551:	89 e5                	mov    %esp,%ebp
    6553:	83 ec 2c             	sub    $0x2c,%esp
    6556:	e8 fc ff ff ff       	call   6557 <ApplyRadioResourceConfigCommon+0x7>
    655b:	8b 45 08             	mov    0x8(%ebp),%eax
    655e:	89 04 24             	mov    %eax,(%esp)
    6561:	8b 45 0c             	mov    0xc(%ebp),%eax
    6564:	89 44 24 04          	mov    %eax,0x4(%esp)
    6568:	8b 45 10             	mov    0x10(%ebp),%eax
    656b:	89 44 24 08          	mov    %eax,0x8(%esp)
    656f:	8b 45 14             	mov    0x14(%ebp),%eax
    6572:	89 44 24 0c          	mov    %eax,0xc(%esp)
    6576:	8b 45 18             	mov    0x18(%ebp),%eax
    6579:	89 44 24 10          	mov    %eax,0x10(%esp)
    657d:	8b 45 1c             	mov    0x1c(%ebp),%eax
    6580:	89 44 24 14          	mov    %eax,0x14(%esp)
    6584:	8b 45 20             	mov    0x20(%ebp),%eax
    6587:	89 44 24 18          	mov    %eax,0x18(%esp)
    658b:	8b 45 24             	mov    0x24(%ebp),%eax
    658e:	89 44 24 1c          	mov    %eax,0x1c(%esp)
    6592:	8b 45 28             	mov    0x28(%ebp),%eax
    6595:	89 44 24 20          	mov    %eax,0x20(%esp)
    6599:	8b 45 2c             	mov    0x2c(%ebp),%eax
    659c:	89 44 24 24          	mov    %eax,0x24(%esp)
    65a0:	8b 45 30             	mov    0x30(%ebp),%eax
    65a3:	89 44 24 28          	mov    %eax,0x28(%esp)
    65a7:	e8 fc ff ff ff       	call   65a8 <ApplyRadioResourceConfigCommon+0x58>
    65ac:	c9                   	leave  
    65ad:	c3                   	ret    
    65ae:	66 90                	xchg   %ax,%ax

000065b0 <DoReceiveSIB2>:
    65b0:	55                   	push   %ebp
    65b1:	89 e5                	mov    %esp,%ebp
    65b3:	81 ec c4 00 00 00    	sub    $0xc4,%esp
    65b9:	89 75 f8             	mov    %esi,-0x8(%ebp)
    65bc:	89 7d fc             	mov    %edi,-0x4(%ebp)
    65bf:	e8 fc ff ff ff       	call   65c0 <DoReceiveSIB2+0x10>
    65c4:	c7 04 24 cc 1b 00 00 	movl   $0x1bcc,(%esp)
    65cb:	8d 75 28             	lea    0x28(%ebp),%esi
    65ce:	e8 fc ff ff ff       	call   65cf <DoReceiveSIB2+0x1f>
    65d3:	b9 2f 00 00 00       	mov    $0x2f,%ecx
    65d8:	89 e7                	mov    %esp,%edi
    65da:	f3 a5                	rep movsl %ds:(%esi),%es:(%edi)
    65dc:	e8 fc ff ff ff       	call   65dd <DoReceiveSIB2+0x2d>
    65e1:	c7 04 24 f0 1b 00 00 	movl   $0x1bf0,(%esp)
    65e8:	e8 fc ff ff ff       	call   65e9 <DoReceiveSIB2+0x39>
    65ed:	8b 75 f8             	mov    -0x8(%ebp),%esi
    65f0:	8b 7d fc             	mov    -0x4(%ebp),%edi
    65f3:	89 ec                	mov    %ebp,%esp
    65f5:	5d                   	pop    %ebp
    65f6:	c3                   	ret    
    65f7:	89 f6                	mov    %esi,%esi
    65f9:	8d bc 27 00 00 00 00 	lea    0x0(%edi,%eiz,1),%edi

00006600 <ApplyBCCH_Config>:
    6600:	55                   	push   %ebp
    6601:	89 e5                	mov    %esp,%ebp
    6603:	e8 fc ff ff ff       	call   6604 <ApplyBCCH_Config+0x4>
    6608:	5d                   	pop    %ebp
    6609:	c3                   	ret    
    660a:	8d b6 00 00 00 00    	lea    0x0(%esi),%esi

00006610 <ApplyPCCH_Config>:
    6610:	55                   	push   %ebp
    6611:	89 e5                	mov    %esp,%ebp
    6613:	e8 fc ff ff ff       	call   6614 <ApplyPCCH_Config+0x4>
    6618:	5d                   	pop    %ebp
    6619:	c3                   	ret    
    661a:	8d b6 00 00 00 00    	lea    0x0(%esi),%esi

00006620 <ApplyPRACH_ConfigSIB>:
    6620:	55                   	push   %ebp
    6621:	89 e5                	mov    %esp,%ebp
    6623:	e8 fc ff ff ff       	call   6624 <ApplyPRACH_ConfigSIB+0x4>
    6628:	5d                   	pop    %ebp
    6629:	c3                   	ret    
    662a:	8d b6 00 00 00 00    	lea    0x0(%esi),%esi

00006630 <ApplyPDSCH_ConfigCommon>:
    6630:	55                   	push   %ebp
    6631:	89 e5                	mov    %esp,%ebp
    6633:	e8 fc ff ff ff       	call   6634 <ApplyPDSCH_ConfigCommon+0x4>
    6638:	5d                   	pop    %ebp
    6639:	c3                   	ret    
    663a:	8d b6 00 00 00 00    	lea    0x0(%esi),%esi

00006640 <ApplyPUSCH_ConfigCommon>:
    6640:	55                   	push   %ebp
    6641:	89 e5                	mov    %esp,%ebp
    6643:	e8 fc ff ff ff       	call   6644 <ApplyPUSCH_ConfigCommon+0x4>
    6648:	5d                   	pop    %ebp
    6649:	c3                   	ret    
    664a:	8d b6 00 00 00 00    	lea    0x0(%esi),%esi

00006650 <ApplySoundingRS_UL_ConfigCommon>:
    6650:	55                   	push   %ebp
    6651:	89 e5                	mov    %esp,%ebp
    6653:	e8 fc ff ff ff       	call   6654 <ApplySoundingRS_UL_ConfigCommon+0x4>
    6658:	5d                   	pop    %ebp
    6659:	c3                   	ret    
    665a:	8d b6 00 00 00 00    	lea    0x0(%esi),%esi

00006660 <ApplyUplinkPowerControlCommon>:
    6660:	55                   	push   %ebp
    6661:	89 e5                	mov    %esp,%ebp
    6663:	e8 fc ff ff ff       	call   6664 <ApplyUplinkPowerControlCommon+0x4>
    6668:	5d                   	pop    %ebp
    6669:	c3                   	ret    
    666a:	8d b6 00 00 00 00    	lea    0x0(%esi),%esi

00006670 <ApplyUL_CyclicPrefixLength>:
    6670:	55                   	push   %ebp
    6671:	89 e5                	mov    %esp,%ebp
    6673:	e8 fc ff ff ff       	call   6674 <ApplyUL_CyclicPrefixLength+0x4>
    6678:	5d                   	pop    %ebp
    6679:	c3                   	ret    
    667a:	8d b6 00 00 00 00    	lea    0x0(%esi),%esi

00006680 <gen_paging>:
    6680:	55                   	push   %ebp
    6681:	89 e5                	mov    %esp,%ebp
    6683:	53                   	push   %ebx
    6684:	81 ec d8 01 00 00    	sub    $0x1d8,%esp
    668a:	e8 fc ff ff ff       	call   668b <gen_paging+0xb>
    668f:	b8 dc 01 00 00       	mov    $0x1dc,%eax
    6694:	c6 85 24 fe ff ff 01 	movb   $0x1,-0x1dc(%ebp)
    669b:	c7 85 28 fe ff ff 03 	movl   $0x3,-0x1d8(%ebp)
    66a2:	00 00 00 
    66a5:	c7 85 2c fe ff ff 01 	movl   $0x1,-0x1d4(%ebp)
    66ac:	00 00 00 
    66af:	c6 85 30 fe ff ff 0b 	movb   $0xb,-0x1d0(%ebp)
    66b6:	c7 85 31 fe ff ff 40 	movl   $0x1e240,-0x1cf(%ebp)
    66bd:	e2 01 00 
    66c0:	c7 85 84 fe ff ff 00 	movl   $0x0,-0x17c(%ebp)
    66c7:	00 00 00 
    66ca:	c7 85 88 fe ff ff 01 	movl   $0x1,-0x178(%ebp)
    66d1:	00 00 00 
    66d4:	c6 85 8c fe ff ff 0c 	movb   $0xc,-0x174(%ebp)
    66db:	c7 85 8d fe ff ff 40 	movl   $0x1e240,-0x173(%ebp)
    66e2:	e2 01 00 
    66e5:	c7 85 e0 fe ff ff 00 	movl   $0x0,-0x120(%ebp)
    66ec:	00 00 00 
    66ef:	c7 85 e4 fe ff ff 01 	movl   $0x1,-0x11c(%ebp)
    66f6:	00 00 00 
    66f9:	c6 85 e8 fe ff ff 0c 	movb   $0xc,-0x118(%ebp)
    6700:	c7 85 e9 fe ff ff 41 	movl   $0x1e241,-0x117(%ebp)
    6707:	e2 01 00 
    670a:	c7 85 3c ff ff ff 00 	movl   $0x0,-0xc4(%ebp)
    6711:	00 00 00 
    6714:	c6 45 f8 01          	movb   $0x1,-0x8(%ebp)
    6718:	e8 fc ff ff ff       	call   6719 <gen_paging+0x99>
    671d:	ba d8 01 00 00       	mov    $0x1d8,%edx
    6722:	89 c3                	mov    %eax,%ebx
    6724:	e8 fc ff ff ff       	call   6725 <gen_paging+0xa5>
    6729:	8b 83 ac 00 00 00    	mov    0xac(%ebx),%eax
    672f:	b9 d8 01 00 00       	mov    $0x1d8,%ecx
    6734:	8d 95 24 fe ff ff    	lea    -0x1dc(%ebp),%edx
    673a:	e8 fc ff ff ff       	call   673b <gen_paging+0xbb>
    673f:	89 d8                	mov    %ebx,%eax
    6741:	e8 fc ff ff ff       	call   6742 <gen_paging+0xc2>
    6746:	83 f8 03             	cmp    $0x3,%eax
    6749:	77 12                	ja     675d <gen_paging+0xdd>
    674b:	89 d8                	mov    %ebx,%eax
    674d:	ba 04 00 00 00       	mov    $0x4,%edx
    6752:	e8 fc ff ff ff       	call   6753 <gen_paging+0xd3>
    6757:	85 c0                	test   %eax,%eax
    6759:	89 c3                	mov    %eax,%ebx
    675b:	74 23                	je     6780 <gen_paging+0x100>
    675d:	89 d8                	mov    %ebx,%eax
    675f:	ba 04 00 00 00       	mov    $0x4,%edx
    6764:	e8 fc ff ff ff       	call   6765 <gen_paging+0xe5>
    6769:	8b 83 ac 00 00 00    	mov    0xac(%ebx),%eax
    676f:	c7 00 00 00 00 00    	movl   $0x0,(%eax)
    6775:	89 d8                	mov    %ebx,%eax
    6777:	81 c4 d8 01 00 00    	add    $0x1d8,%esp
    677d:	5b                   	pop    %ebx
    677e:	5d                   	pop    %ebp
    677f:	c3                   	ret    
    6780:	81 c4 d8 01 00 00    	add    $0x1d8,%esp
    6786:	5b                   	pop    %ebx
    6787:	5d                   	pop    %ebp
    6788:	c3                   	ret    
    6789:	8d b4 26 00 00 00 00 	lea    0x0(%esi,%eiz,1),%esi

00006790 <gen_si>:
    6790:	55                   	push   %ebp
    6791:	89 e5                	mov    %esp,%ebp
    6793:	53                   	push   %ebx
    6794:	81 ec 70 01 00 00    	sub    $0x170,%esp
    679a:	e8 fc ff ff ff       	call   679b <gen_si+0xb>
    679f:	b8 74 01 00 00       	mov    $0x174,%eax
    67a4:	c7 85 8c fe ff ff 01 	movl   $0x1,-0x174(%ebp)
    67ab:	00 00 00 
    67ae:	c6 85 90 fe ff ff 01 	movb   $0x1,-0x170(%ebp)
    67b5:	c7 85 b4 fe ff ff 20 	movl   $0x20,-0x14c(%ebp)
    67bc:	00 00 00 
    67bf:	c6 85 b8 fe ff ff 01 	movb   $0x1,-0x148(%ebp)
    67c6:	c7 85 bc fe ff ff 08 	movl   $0x8,-0x144(%ebp)
    67cd:	00 00 00 
    67d0:	c7 85 c0 fe ff ff 90 	movl   $0x90,-0x140(%ebp)
    67d7:	00 00 00 
    67da:	c7 85 c4 fe ff ff 0c 	movl   $0xc,-0x13c(%ebp)
    67e1:	00 00 00 
    67e4:	c7 85 c8 fe ff ff 04 	movl   $0x4,-0x138(%ebp)
    67eb:	00 00 00 
    67ee:	c7 85 cc fe ff ff 92 	movl   $0xffffff92,-0x134(%ebp)
    67f5:	ff ff ff 
    67f8:	c7 85 d0 fe ff ff 04 	movl   $0x4,-0x130(%ebp)
    67ff:	00 00 00 
    6802:	c7 85 dc fe ff ff 04 	movl   $0x4,-0x124(%ebp)
    6809:	00 00 00 
    680c:	c7 85 e0 fe ff ff 04 	movl   $0x4,-0x120(%ebp)
    6813:	00 00 00 
    6816:	c7 85 e4 fe ff ff 40 	movl   $0x40,-0x11c(%ebp)
    681d:	00 00 00 
    6820:	c7 85 e8 fe ff ff 01 	movl   $0x1,-0x118(%ebp)
    6827:	00 00 00 
    682a:	c6 45 94 01          	movb   $0x1,-0x6c(%ebp)
    682e:	e8 fc ff ff ff       	call   682f <gen_si+0x9f>
    6833:	ba 70 01 00 00       	mov    $0x170,%edx
    6838:	89 c3                	mov    %eax,%ebx
    683a:	e8 fc ff ff ff       	call   683b <gen_si+0xab>
    683f:	8b 83 ac 00 00 00    	mov    0xac(%ebx),%eax
    6845:	b9 70 01 00 00       	mov    $0x170,%ecx
    684a:	8d 95 8c fe ff ff    	lea    -0x174(%ebp),%edx
    6850:	e8 fc ff ff ff       	call   6851 <gen_si+0xc1>
    6855:	89 d8                	mov    %ebx,%eax
    6857:	e8 fc ff ff ff       	call   6858 <gen_si+0xc8>
    685c:	83 f8 03             	cmp    $0x3,%eax
    685f:	77 12                	ja     6873 <gen_si+0xe3>
    6861:	89 d8                	mov    %ebx,%eax
    6863:	ba 04 00 00 00       	mov    $0x4,%edx
    6868:	e8 fc ff ff ff       	call   6869 <gen_si+0xd9>
    686d:	85 c0                	test   %eax,%eax
    686f:	89 c3                	mov    %eax,%ebx
    6871:	74 25                	je     6898 <gen_si+0x108>
    6873:	89 d8                	mov    %ebx,%eax
    6875:	ba 04 00 00 00       	mov    $0x4,%edx
    687a:	e8 fc ff ff ff       	call   687b <gen_si+0xeb>
    687f:	8b 83 ac 00 00 00    	mov    0xac(%ebx),%eax
    6885:	c7 00 02 00 00 00    	movl   $0x2,(%eax)
    688b:	89 d8                	mov    %ebx,%eax
    688d:	81 c4 70 01 00 00    	add    $0x170,%esp
    6893:	5b                   	pop    %ebx
    6894:	5d                   	pop    %ebp
    6895:	c3                   	ret    
    6896:	66 90                	xchg   %ax,%ax
    6898:	81 c4 70 01 00 00    	add    $0x170,%esp
    689e:	5b                   	pop    %ebx
    689f:	5d                   	pop    %ebp
    68a0:	c3                   	ret    
    68a1:	eb 0d                	jmp    68b0 <gen_mib>
    68a3:	90                   	nop
    68a4:	90                   	nop
    68a5:	90                   	nop
    68a6:	90                   	nop
    68a7:	90                   	nop
    68a8:	90                   	nop
    68a9:	90                   	nop
    68aa:	90                   	nop
    68ab:	90                   	nop
    68ac:	90                   	nop
    68ad:	90                   	nop
    68ae:	90                   	nop
    68af:	90                   	nop

000068b0 <gen_mib>:
    68b0:	55                   	push   %ebp
    68b1:	89 e5                	mov    %esp,%ebp
    68b3:	53                   	push   %ebx
    68b4:	83 ec 10             	sub    $0x10,%esp
    68b7:	e8 fc ff ff ff       	call   68b8 <gen_mib+0x8>
    68bc:	b8 14 00 00 00       	mov    $0x14,%eax
    68c1:	c7 45 ec 19 00 00 00 	movl   $0x19,-0x14(%ebp)
    68c8:	c7 45 f0 00 00 00 00 	movl   $0x0,-0x10(%ebp)
    68cf:	c7 45 f4 00 00 00 00 	movl   $0x0,-0xc(%ebp)
    68d6:	c6 45 f8 78          	movb   $0x78,-0x8(%ebp)
    68da:	e8 fc ff ff ff       	call   68db <gen_mib+0x2b>
    68df:	ba 10 00 00 00       	mov    $0x10,%edx
    68e4:	89 c3                	mov    %eax,%ebx
    68e6:	e8 fc ff ff ff       	call   68e7 <gen_mib+0x37>
    68eb:	8b 83 ac 00 00 00    	mov    0xac(%ebx),%eax
    68f1:	b9 10 00 00 00       	mov    $0x10,%ecx
    68f6:	8d 55 ec             	lea    -0x14(%ebp),%edx
    68f9:	e8 fc ff ff ff       	call   68fa <gen_mib+0x4a>
    68fe:	89 d8                	mov    %ebx,%eax
    6900:	e8 fc ff ff ff       	call   6901 <gen_mib+0x51>
    6905:	83 f8 03             	cmp    $0x3,%eax
    6908:	77 12                	ja     691c <gen_mib+0x6c>
    690a:	89 d8                	mov    %ebx,%eax
    690c:	ba 04 00 00 00       	mov    $0x4,%edx
    6911:	e8 fc ff ff ff       	call   6912 <gen_mib+0x62>
    6916:	85 c0                	test   %eax,%eax
    6918:	89 c3                	mov    %eax,%ebx
    691a:	74 24                	je     6940 <gen_mib+0x90>
    691c:	89 d8                	mov    %ebx,%eax
    691e:	ba 04 00 00 00       	mov    $0x4,%edx
    6923:	e8 fc ff ff ff       	call   6924 <gen_mib+0x74>
    6928:	8b 83 ac 00 00 00    	mov    0xac(%ebx),%eax
    692e:	c7 00 01 00 00 00    	movl   $0x1,(%eax)
    6934:	89 d8                	mov    %ebx,%eax
    6936:	83 c4 10             	add    $0x10,%esp
    6939:	5b                   	pop    %ebx
    693a:	5d                   	pop    %ebp
    693b:	c3                   	ret    
    693c:	8d 74 26 00          	lea    0x0(%esi,%eiz,1),%esi
    6940:	83 c4 10             	add    $0x10,%esp
    6943:	5b                   	pop    %ebx
    6944:	5d                   	pop    %ebp
    6945:	c3                   	ret    
    6946:	8d 76 00             	lea    0x0(%esi),%esi
    6949:	8d bc 27 00 00 00 00 	lea    0x0(%edi,%eiz,1),%edi

00006950 <gen_sib1>:
    6950:	55                   	push   %ebp
    6951:	89 e5                	mov    %esp,%ebp
    6953:	53                   	push   %ebx
    6954:	81 ec 70 01 00 00    	sub    $0x170,%esp
    695a:	e8 fc ff ff ff       	call   695b <gen_sib1+0xb>
    695f:	b8 74 01 00 00       	mov    $0x174,%eax
    6964:	c7 85 8c fe ff ff 02 	movl   $0x2,-0x174(%ebp)
    696b:	00 00 00 
    696e:	66 c7 85 38 ff ff ff 	movw   $0xc,-0xc8(%ebp)
    6975:	0c 00 
    6977:	c7 85 3c ff ff ff 0f 	movl   $0xf,-0xc4(%ebp)
    697e:	00 00 00 
    6981:	e8 fc ff ff ff       	call   6982 <gen_sib1+0x32>
    6986:	ba 70 01 00 00       	mov    $0x170,%edx
    698b:	89 c3                	mov    %eax,%ebx
    698d:	e8 fc ff ff ff       	call   698e <gen_sib1+0x3e>
    6992:	8b 83 ac 00 00 00    	mov    0xac(%ebx),%eax
    6998:	b9 70 01 00 00       	mov    $0x170,%ecx
    699d:	8d 95 8c fe ff ff    	lea    -0x174(%ebp),%edx
    69a3:	e8 fc ff ff ff       	call   69a4 <gen_sib1+0x54>
    69a8:	89 d8                	mov    %ebx,%eax
    69aa:	e8 fc ff ff ff       	call   69ab <gen_sib1+0x5b>
    69af:	83 f8 03             	cmp    $0x3,%eax
    69b2:	77 12                	ja     69c6 <gen_sib1+0x76>
    69b4:	89 d8                	mov    %ebx,%eax
    69b6:	ba 04 00 00 00       	mov    $0x4,%edx
    69bb:	e8 fc ff ff ff       	call   69bc <gen_sib1+0x6c>
    69c0:	85 c0                	test   %eax,%eax
    69c2:	89 c3                	mov    %eax,%ebx
    69c4:	74 2a                	je     69f0 <gen_sib1+0xa0>
    69c6:	89 d8                	mov    %ebx,%eax
    69c8:	ba 04 00 00 00       	mov    $0x4,%edx
    69cd:	e8 fc ff ff ff       	call   69ce <gen_sib1+0x7e>
    69d2:	8b 83 ac 00 00 00    	mov    0xac(%ebx),%eax
    69d8:	c7 00 02 00 00 00    	movl   $0x2,(%eax)
    69de:	89 d8                	mov    %ebx,%eax
    69e0:	81 c4 70 01 00 00    	add    $0x170,%esp
    69e6:	5b                   	pop    %ebx
    69e7:	5d                   	pop    %ebp
    69e8:	c3                   	ret    
    69e9:	8d b4 26 00 00 00 00 	lea    0x0(%esi,%eiz,1),%esi
    69f0:	81 c4 70 01 00 00    	add    $0x170,%esp
    69f6:	5b                   	pop    %ebx
    69f7:	5d                   	pop    %ebp
    69f8:	c3                   	ret    
